
game_binary.bin:     file format elf64-x86-64


Disassembly of section .init:

00000000004013a0 <_init>:
  4013a0:	48 83 ec 08          	sub    $0x8,%rsp
  4013a4:	48 8b 05 4d 5c 20 00 	mov    0x205c4d(%rip),%rax        # 606ff8 <_DYNAMIC+0x1f0>
  4013ab:	48 85 c0             	test   %rax,%rax
  4013ae:	74 05                	je     4013b5 <_init+0x15>
  4013b0:	e8 eb 02 00 00       	callq  4016a0 <time@plt+0x10>
  4013b5:	48 83 c4 08          	add    $0x8,%rsp
  4013b9:	c3                   	retq   

Disassembly of section .plt:

00000000004013c0 <_ZSt20__throw_length_errorPKc@plt-0x10>:
  4013c0:	ff 35 42 5c 20 00    	pushq  0x205c42(%rip)        # 607008 <_GLOBAL_OFFSET_TABLE_+0x8>
  4013c6:	ff 25 44 5c 20 00    	jmpq   *0x205c44(%rip)        # 607010 <_GLOBAL_OFFSET_TABLE_+0x10>
  4013cc:	0f 1f 40 00          	nopl   0x0(%rax)

00000000004013d0 <_ZSt20__throw_length_errorPKc@plt>:
  4013d0:	ff 25 42 5c 20 00    	jmpq   *0x205c42(%rip)        # 607018 <_GLOBAL_OFFSET_TABLE_+0x18>
  4013d6:	68 00 00 00 00       	pushq  $0x0
  4013db:	e9 e0 ff ff ff       	jmpq   4013c0 <_init+0x20>

00000000004013e0 <_ZNSolsEi@plt>:
  4013e0:	ff 25 3a 5c 20 00    	jmpq   *0x205c3a(%rip)        # 607020 <_GLOBAL_OFFSET_TABLE_+0x20>
  4013e6:	68 01 00 00 00       	pushq  $0x1
  4013eb:	e9 d0 ff ff ff       	jmpq   4013c0 <_init+0x20>

00000000004013f0 <_ZNKSt7__cxx1112basic_stringIcSt11char_traitsIcESaIcEE6substrEmm@plt>:
  4013f0:	ff 25 32 5c 20 00    	jmpq   *0x205c32(%rip)        # 607028 <_GLOBAL_OFFSET_TABLE_+0x28>
  4013f6:	68 02 00 00 00       	pushq  $0x2
  4013fb:	e9 c0 ff ff ff       	jmpq   4013c0 <_init+0x20>

0000000000401400 <_ZNSolsEy@plt>:
  401400:	ff 25 2a 5c 20 00    	jmpq   *0x205c2a(%rip)        # 607030 <_GLOBAL_OFFSET_TABLE_+0x30>
  401406:	68 03 00 00 00       	pushq  $0x3
  40140b:	e9 b0 ff ff ff       	jmpq   4013c0 <_init+0x20>

0000000000401410 <_ZNSt7__cxx1112basic_stringIcSt11char_traitsIcESaIcEEaSEOS4_@plt>:
  401410:	ff 25 22 5c 20 00    	jmpq   *0x205c22(%rip)        # 607038 <_GLOBAL_OFFSET_TABLE_+0x38>
  401416:	68 04 00 00 00       	pushq  $0x4
  40141b:	e9 a0 ff ff ff       	jmpq   4013c0 <_init+0x20>

0000000000401420 <_ZdlPv@plt>:
  401420:	ff 25 1a 5c 20 00    	jmpq   *0x205c1a(%rip)        # 607040 <_GLOBAL_OFFSET_TABLE_+0x40>
  401426:	68 05 00 00 00       	pushq  $0x5
  40142b:	e9 90 ff ff ff       	jmpq   4013c0 <_init+0x20>

0000000000401430 <__cxa_rethrow@plt>:
  401430:	ff 25 12 5c 20 00    	jmpq   *0x205c12(%rip)        # 607048 <_GLOBAL_OFFSET_TABLE_+0x48>
  401436:	68 06 00 00 00       	pushq  $0x6
  40143b:	e9 80 ff ff ff       	jmpq   4013c0 <_init+0x20>

0000000000401440 <_ZNSt8ios_base4InitC1Ev@plt>:
  401440:	ff 25 0a 5c 20 00    	jmpq   *0x205c0a(%rip)        # 607050 <_GLOBAL_OFFSET_TABLE_+0x50>
  401446:	68 07 00 00 00       	pushq  $0x7
  40144b:	e9 70 ff ff ff       	jmpq   4013c0 <_init+0x20>

0000000000401450 <__libc_start_main@plt>:
  401450:	ff 25 02 5c 20 00    	jmpq   *0x205c02(%rip)        # 607058 <_GLOBAL_OFFSET_TABLE_+0x58>
  401456:	68 08 00 00 00       	pushq  $0x8
  40145b:	e9 60 ff ff ff       	jmpq   4013c0 <_init+0x20>

0000000000401460 <_ZSt24__throw_invalid_argumentPKc@plt>:
  401460:	ff 25 fa 5b 20 00    	jmpq   *0x205bfa(%rip)        # 607060 <_GLOBAL_OFFSET_TABLE_+0x60>
  401466:	68 09 00 00 00       	pushq  $0x9
  40146b:	e9 50 ff ff ff       	jmpq   4013c0 <_init+0x20>

0000000000401470 <__cxa_atexit@plt>:
  401470:	ff 25 f2 5b 20 00    	jmpq   *0x205bf2(%rip)        # 607068 <_GLOBAL_OFFSET_TABLE_+0x68>
  401476:	68 0a 00 00 00       	pushq  $0xa
  40147b:	e9 40 ff ff ff       	jmpq   4013c0 <_init+0x20>

0000000000401480 <_ZSt20__throw_out_of_rangePKc@plt>:
  401480:	ff 25 ea 5b 20 00    	jmpq   *0x205bea(%rip)        # 607070 <_GLOBAL_OFFSET_TABLE_+0x70>
  401486:	68 0b 00 00 00       	pushq  $0xb
  40148b:	e9 30 ff ff ff       	jmpq   4013c0 <_init+0x20>

0000000000401490 <_ZNSt8ios_base4InitD1Ev@plt>:
  401490:	ff 25 e2 5b 20 00    	jmpq   *0x205be2(%rip)        # 607078 <_GLOBAL_OFFSET_TABLE_+0x78>
  401496:	68 0c 00 00 00       	pushq  $0xc
  40149b:	e9 20 ff ff ff       	jmpq   4013c0 <_init+0x20>

00000000004014a0 <_ZStlsISt11char_traitsIcEERSt13basic_ostreamIcT_ES5_PKc@plt>:
  4014a0:	ff 25 da 5b 20 00    	jmpq   *0x205bda(%rip)        # 607080 <_GLOBAL_OFFSET_TABLE_+0x80>
  4014a6:	68 0d 00 00 00       	pushq  $0xd
  4014ab:	e9 10 ff ff ff       	jmpq   4013c0 <_init+0x20>

00000000004014b0 <_ZNSt7__cxx1112basic_stringIcSt11char_traitsIcESaIcEEC1Ev@plt>:
  4014b0:	ff 25 d2 5b 20 00    	jmpq   *0x205bd2(%rip)        # 607088 <_GLOBAL_OFFSET_TABLE_+0x88>
  4014b6:	68 0e 00 00 00       	pushq  $0xe
  4014bb:	e9 00 ff ff ff       	jmpq   4013c0 <_init+0x20>

00000000004014c0 <_ZNSt7__cxx1112basic_stringIcSt11char_traitsIcESaIcEEC1EOS4_@plt>:
  4014c0:	ff 25 ca 5b 20 00    	jmpq   *0x205bca(%rip)        # 607090 <_GLOBAL_OFFSET_TABLE_+0x90>
  4014c6:	68 0f 00 00 00       	pushq  $0xf
  4014cb:	e9 f0 fe ff ff       	jmpq   4013c0 <_init+0x20>

00000000004014d0 <_ZNSt7__cxx1112basic_stringIcSt11char_traitsIcESaIcEED1Ev@plt>:
  4014d0:	ff 25 c2 5b 20 00    	jmpq   *0x205bc2(%rip)        # 607098 <_GLOBAL_OFFSET_TABLE_+0x98>
  4014d6:	68 10 00 00 00       	pushq  $0x10
  4014db:	e9 e0 fe ff ff       	jmpq   4013c0 <_init+0x20>

00000000004014e0 <strtol@plt>:
  4014e0:	ff 25 ba 5b 20 00    	jmpq   *0x205bba(%rip)        # 6070a0 <_GLOBAL_OFFSET_TABLE_+0xa0>
  4014e6:	68 11 00 00 00       	pushq  $0x11
  4014eb:	e9 d0 fe ff ff       	jmpq   4013c0 <_init+0x20>

00000000004014f0 <_ZNKSt7__cxx1112basic_stringIcSt11char_traitsIcESaIcEE4dataEv@plt>:
  4014f0:	ff 25 b2 5b 20 00    	jmpq   *0x205bb2(%rip)        # 6070a8 <_GLOBAL_OFFSET_TABLE_+0xa8>
  4014f6:	68 12 00 00 00       	pushq  $0x12
  4014fb:	e9 c0 fe ff ff       	jmpq   4013c0 <_init+0x20>

0000000000401500 <_ZNSolsEj@plt>:
  401500:	ff 25 aa 5b 20 00    	jmpq   *0x205baa(%rip)        # 6070b0 <_GLOBAL_OFFSET_TABLE_+0xb0>
  401506:	68 13 00 00 00       	pushq  $0x13
  40150b:	e9 b0 fe ff ff       	jmpq   4013c0 <_init+0x20>

0000000000401510 <__errno_location@plt>:
  401510:	ff 25 a2 5b 20 00    	jmpq   *0x205ba2(%rip)        # 6070b8 <_GLOBAL_OFFSET_TABLE_+0xb8>
  401516:	68 14 00 00 00       	pushq  $0x14
  40151b:	e9 a0 fe ff ff       	jmpq   4013c0 <_init+0x20>

0000000000401520 <__stack_chk_fail@plt>:
  401520:	ff 25 9a 5b 20 00    	jmpq   *0x205b9a(%rip)        # 6070c0 <_GLOBAL_OFFSET_TABLE_+0xc0>
  401526:	68 15 00 00 00       	pushq  $0x15
  40152b:	e9 90 fe ff ff       	jmpq   4013c0 <_init+0x20>

0000000000401530 <_ZNSaIcED1Ev@plt>:
  401530:	ff 25 92 5b 20 00    	jmpq   *0x205b92(%rip)        # 6070c8 <_GLOBAL_OFFSET_TABLE_+0xc8>
  401536:	68 16 00 00 00       	pushq  $0x16
  40153b:	e9 80 fe ff ff       	jmpq   4013c0 <_init+0x20>

0000000000401540 <_ZNSirsERi@plt>:
  401540:	ff 25 8a 5b 20 00    	jmpq   *0x205b8a(%rip)        # 6070d0 <_GLOBAL_OFFSET_TABLE_+0xd0>
  401546:	68 17 00 00 00       	pushq  $0x17
  40154b:	e9 70 fe ff ff       	jmpq   4013c0 <_init+0x20>

0000000000401550 <srand@plt>:
  401550:	ff 25 82 5b 20 00    	jmpq   *0x205b82(%rip)        # 6070d8 <_GLOBAL_OFFSET_TABLE_+0xd8>
  401556:	68 18 00 00 00       	pushq  $0x18
  40155b:	e9 60 fe ff ff       	jmpq   4013c0 <_init+0x20>

0000000000401560 <_ZNKSt7__cxx1112basic_stringIcSt11char_traitsIcESaIcEE4sizeEv@plt>:
  401560:	ff 25 7a 5b 20 00    	jmpq   *0x205b7a(%rip)        # 6070e0 <_GLOBAL_OFFSET_TABLE_+0xe0>
  401566:	68 19 00 00 00       	pushq  $0x19
  40156b:	e9 50 fe ff ff       	jmpq   4013c0 <_init+0x20>

0000000000401570 <memcmp@plt>:
  401570:	ff 25 72 5b 20 00    	jmpq   *0x205b72(%rip)        # 6070e8 <_GLOBAL_OFFSET_TABLE_+0xe8>
  401576:	68 1a 00 00 00       	pushq  $0x1a
  40157b:	e9 40 fe ff ff       	jmpq   4013c0 <_init+0x20>

0000000000401580 <_ZNSolsEPFRSoS_E@plt>:
  401580:	ff 25 6a 5b 20 00    	jmpq   *0x205b6a(%rip)        # 6070f0 <_GLOBAL_OFFSET_TABLE_+0xf0>
  401586:	68 1b 00 00 00       	pushq  $0x1b
  40158b:	e9 30 fe ff ff       	jmpq   4013c0 <_init+0x20>

0000000000401590 <__cxa_end_catch@plt>:
  401590:	ff 25 62 5b 20 00    	jmpq   *0x205b62(%rip)        # 6070f8 <_GLOBAL_OFFSET_TABLE_+0xf8>
  401596:	68 1c 00 00 00       	pushq  $0x1c
  40159b:	e9 20 fe ff ff       	jmpq   4013c0 <_init+0x20>

00000000004015a0 <_ZSt17__throw_bad_allocv@plt>:
  4015a0:	ff 25 5a 5b 20 00    	jmpq   *0x205b5a(%rip)        # 607100 <_GLOBAL_OFFSET_TABLE_+0x100>
  4015a6:	68 1d 00 00 00       	pushq  $0x1d
  4015ab:	e9 10 fe ff ff       	jmpq   4013c0 <_init+0x20>

00000000004015b0 <_ZStrsIcSt11char_traitsIcESaIcEERSt13basic_istreamIT_T0_ES7_RNSt7__cxx1112basic_stringIS4_S5_T1_EE@plt>:
  4015b0:	ff 25 52 5b 20 00    	jmpq   *0x205b52(%rip)        # 607108 <_GLOBAL_OFFSET_TABLE_+0x108>
  4015b6:	68 1e 00 00 00       	pushq  $0x1e
  4015bb:	e9 00 fe ff ff       	jmpq   4013c0 <_init+0x20>

00000000004015c0 <_ZNKSt7__cxx1112basic_stringIcSt11char_traitsIcESaIcEE5c_strEv@plt>:
  4015c0:	ff 25 4a 5b 20 00    	jmpq   *0x205b4a(%rip)        # 607110 <_GLOBAL_OFFSET_TABLE_+0x110>
  4015c6:	68 1f 00 00 00       	pushq  $0x1f
  4015cb:	e9 f0 fd ff ff       	jmpq   4013c0 <_init+0x20>

00000000004015d0 <_ZSt4endlIcSt11char_traitsIcEERSt13basic_ostreamIT_T0_ES6_@plt>:
  4015d0:	ff 25 42 5b 20 00    	jmpq   *0x205b42(%rip)        # 607118 <_GLOBAL_OFFSET_TABLE_+0x118>
  4015d6:	68 20 00 00 00       	pushq  $0x20
  4015db:	e9 e0 fd ff ff       	jmpq   4013c0 <_init+0x20>

00000000004015e0 <__cxa_begin_catch@plt>:
  4015e0:	ff 25 3a 5b 20 00    	jmpq   *0x205b3a(%rip)        # 607120 <_GLOBAL_OFFSET_TABLE_+0x120>
  4015e6:	68 21 00 00 00       	pushq  $0x21
  4015eb:	e9 d0 fd ff ff       	jmpq   4013c0 <_init+0x20>

00000000004015f0 <_ZNSt7__cxx1112basic_stringIcSt11char_traitsIcESaIcEEC1ERKS4_@plt>:
  4015f0:	ff 25 32 5b 20 00    	jmpq   *0x205b32(%rip)        # 607128 <_GLOBAL_OFFSET_TABLE_+0x128>
  4015f6:	68 22 00 00 00       	pushq  $0x22
  4015fb:	e9 c0 fd ff ff       	jmpq   4013c0 <_init+0x20>

0000000000401600 <_ZNSt7__cxx1112basic_stringIcSt11char_traitsIcESaIcEEC1EPKcRKS3_@plt>:
  401600:	ff 25 2a 5b 20 00    	jmpq   *0x205b2a(%rip)        # 607130 <_GLOBAL_OFFSET_TABLE_+0x130>
  401606:	68 23 00 00 00       	pushq  $0x23
  40160b:	e9 b0 fd ff ff       	jmpq   4013c0 <_init+0x20>

0000000000401610 <rand@plt>:
  401610:	ff 25 22 5b 20 00    	jmpq   *0x205b22(%rip)        # 607138 <_GLOBAL_OFFSET_TABLE_+0x138>
  401616:	68 24 00 00 00       	pushq  $0x24
  40161b:	e9 a0 fd ff ff       	jmpq   4013c0 <_init+0x20>

0000000000401620 <_ZNSaIcEC1Ev@plt>:
  401620:	ff 25 1a 5b 20 00    	jmpq   *0x205b1a(%rip)        # 607140 <_GLOBAL_OFFSET_TABLE_+0x140>
  401626:	68 25 00 00 00       	pushq  $0x25
  40162b:	e9 90 fd ff ff       	jmpq   4013c0 <_init+0x20>

0000000000401630 <__gxx_personality_v0@plt>:
  401630:	ff 25 12 5b 20 00    	jmpq   *0x205b12(%rip)        # 607148 <_GLOBAL_OFFSET_TABLE_+0x148>
  401636:	68 26 00 00 00       	pushq  $0x26
  40163b:	e9 80 fd ff ff       	jmpq   4013c0 <_init+0x20>

0000000000401640 <_ZStlsIcSt11char_traitsIcESaIcEERSt13basic_ostreamIT_T0_ES7_RKNSt7__cxx1112basic_stringIS4_S5_T1_EE@plt>:
  401640:	ff 25 0a 5b 20 00    	jmpq   *0x205b0a(%rip)        # 607150 <_GLOBAL_OFFSET_TABLE_+0x150>
  401646:	68 27 00 00 00       	pushq  $0x27
  40164b:	e9 70 fd ff ff       	jmpq   4013c0 <_init+0x20>

0000000000401650 <localtime@plt>:
  401650:	ff 25 02 5b 20 00    	jmpq   *0x205b02(%rip)        # 607158 <_GLOBAL_OFFSET_TABLE_+0x158>
  401656:	68 28 00 00 00       	pushq  $0x28
  40165b:	e9 60 fd ff ff       	jmpq   4013c0 <_init+0x20>

0000000000401660 <_Znwm@plt>:
  401660:	ff 25 fa 5a 20 00    	jmpq   *0x205afa(%rip)        # 607160 <_GLOBAL_OFFSET_TABLE_+0x160>
  401666:	68 29 00 00 00       	pushq  $0x29
  40166b:	e9 50 fd ff ff       	jmpq   4013c0 <_init+0x20>

0000000000401670 <_Unwind_Resume@plt>:
  401670:	ff 25 f2 5a 20 00    	jmpq   *0x205af2(%rip)        # 607168 <_GLOBAL_OFFSET_TABLE_+0x168>
  401676:	68 2a 00 00 00       	pushq  $0x2a
  40167b:	e9 40 fd ff ff       	jmpq   4013c0 <_init+0x20>

0000000000401680 <_ZNSt7__cxx1112basic_stringIcSt11char_traitsIcESaIcEEixEm@plt>:
  401680:	ff 25 ea 5a 20 00    	jmpq   *0x205aea(%rip)        # 607170 <_GLOBAL_OFFSET_TABLE_+0x170>
  401686:	68 2b 00 00 00       	pushq  $0x2b
  40168b:	e9 30 fd ff ff       	jmpq   4013c0 <_init+0x20>

0000000000401690 <time@plt>:
  401690:	ff 25 e2 5a 20 00    	jmpq   *0x205ae2(%rip)        # 607178 <_GLOBAL_OFFSET_TABLE_+0x178>
  401696:	68 2c 00 00 00       	pushq  $0x2c
  40169b:	e9 20 fd ff ff       	jmpq   4013c0 <_init+0x20>

Disassembly of section .plt.got:

00000000004016a0 <.plt.got>:
  4016a0:	ff 25 52 59 20 00    	jmpq   *0x205952(%rip)        # 606ff8 <_DYNAMIC+0x1f0>
  4016a6:	66 90                	xchg   %ax,%ax

Disassembly of section .text:

00000000004016b0 <_start>:
  4016b0:	31 ed                	xor    %ebp,%ebp
  4016b2:	49 89 d1             	mov    %rdx,%r9
  4016b5:	5e                   	pop    %rsi
  4016b6:	48 89 e2             	mov    %rsp,%rdx
  4016b9:	48 83 e4 f0          	and    $0xfffffffffffffff0,%rsp
  4016bd:	50                   	push   %rax
  4016be:	54                   	push   %rsp
  4016bf:	49 c7 c0 e0 53 40 00 	mov    $0x4053e0,%r8
  4016c6:	48 c7 c1 70 53 40 00 	mov    $0x405370,%rcx
  4016cd:	48 c7 c7 ea 44 40 00 	mov    $0x4044ea,%rdi
  4016d4:	e8 77 fd ff ff       	callq  401450 <__libc_start_main@plt>
  4016d9:	f4                   	hlt    
  4016da:	66 0f 1f 44 00 00    	nopw   0x0(%rax,%rax,1)

00000000004016e0 <deregister_tm_clones>:
  4016e0:	b8 97 71 60 00       	mov    $0x607197,%eax
  4016e5:	55                   	push   %rbp
  4016e6:	48 2d 90 71 60 00    	sub    $0x607190,%rax
  4016ec:	48 83 f8 0e          	cmp    $0xe,%rax
  4016f0:	48 89 e5             	mov    %rsp,%rbp
  4016f3:	76 1b                	jbe    401710 <deregister_tm_clones+0x30>
  4016f5:	b8 00 00 00 00       	mov    $0x0,%eax
  4016fa:	48 85 c0             	test   %rax,%rax
  4016fd:	74 11                	je     401710 <deregister_tm_clones+0x30>
  4016ff:	5d                   	pop    %rbp
  401700:	bf 90 71 60 00       	mov    $0x607190,%edi
  401705:	ff e0                	jmpq   *%rax
  401707:	66 0f 1f 84 00 00 00 	nopw   0x0(%rax,%rax,1)
  40170e:	00 00 
  401710:	5d                   	pop    %rbp
  401711:	c3                   	retq   
  401712:	0f 1f 40 00          	nopl   0x0(%rax)
  401716:	66 2e 0f 1f 84 00 00 	nopw   %cs:0x0(%rax,%rax,1)
  40171d:	00 00 00 

0000000000401720 <register_tm_clones>:
  401720:	be 90 71 60 00       	mov    $0x607190,%esi
  401725:	55                   	push   %rbp
  401726:	48 81 ee 90 71 60 00 	sub    $0x607190,%rsi
  40172d:	48 c1 fe 03          	sar    $0x3,%rsi
  401731:	48 89 e5             	mov    %rsp,%rbp
  401734:	48 89 f0             	mov    %rsi,%rax
  401737:	48 c1 e8 3f          	shr    $0x3f,%rax
  40173b:	48 01 c6             	add    %rax,%rsi
  40173e:	48 d1 fe             	sar    %rsi
  401741:	74 15                	je     401758 <register_tm_clones+0x38>
  401743:	b8 00 00 00 00       	mov    $0x0,%eax
  401748:	48 85 c0             	test   %rax,%rax
  40174b:	74 0b                	je     401758 <register_tm_clones+0x38>
  40174d:	5d                   	pop    %rbp
  40174e:	bf 90 71 60 00       	mov    $0x607190,%edi
  401753:	ff e0                	jmpq   *%rax
  401755:	0f 1f 00             	nopl   (%rax)
  401758:	5d                   	pop    %rbp
  401759:	c3                   	retq   
  40175a:	66 0f 1f 44 00 00    	nopw   0x0(%rax,%rax,1)

0000000000401760 <__do_global_dtors_aux>:
  401760:	80 3d 69 5c 20 00 00 	cmpb   $0x0,0x205c69(%rip)        # 6073d0 <completed.7585>
  401767:	75 11                	jne    40177a <__do_global_dtors_aux+0x1a>
  401769:	55                   	push   %rbp
  40176a:	48 89 e5             	mov    %rsp,%rbp
  40176d:	e8 6e ff ff ff       	callq  4016e0 <deregister_tm_clones>
  401772:	5d                   	pop    %rbp
  401773:	c6 05 56 5c 20 00 01 	movb   $0x1,0x205c56(%rip)        # 6073d0 <completed.7585>
  40177a:	f3 c3                	repz retq 
  40177c:	0f 1f 40 00          	nopl   0x0(%rax)

0000000000401780 <frame_dummy>:
  401780:	bf 00 6e 60 00       	mov    $0x606e00,%edi
  401785:	48 83 3f 00          	cmpq   $0x0,(%rdi)
  401789:	75 05                	jne    401790 <frame_dummy+0x10>
  40178b:	eb 93                	jmp    401720 <register_tm_clones>
  40178d:	0f 1f 00             	nopl   (%rax)
  401790:	b8 00 00 00 00       	mov    $0x0,%eax
  401795:	48 85 c0             	test   %rax,%rax
  401798:	74 f1                	je     40178b <frame_dummy+0xb>
  40179a:	55                   	push   %rbp
  40179b:	48 89 e5             	mov    %rsp,%rbp
  40179e:	ff d0                	callq  *%rax
  4017a0:	5d                   	pop    %rbp
  4017a1:	e9 7a ff ff ff       	jmpq   401720 <register_tm_clones>

00000000004017a6 <_Z17form_student_listv>:
  4017a6:	55                   	push   %rbp
  4017a7:	48 89 e5             	mov    %rsp,%rbp
  4017aa:	53                   	push   %rbx
  4017ab:	48 83 ec 48          	sub    $0x48,%rsp
  4017af:	64 48 8b 04 25 28 00 	mov    %fs:0x28,%rax
  4017b6:	00 00 
  4017b8:	48 89 45 e8          	mov    %rax,-0x18(%rbp)
  4017bc:	31 c0                	xor    %eax,%eax
  4017be:	48 8d 45 bf          	lea    -0x41(%rbp),%rax
  4017c2:	48 89 c7             	mov    %rax,%rdi
  4017c5:	e8 56 fe ff ff       	callq  401620 <_ZNSaIcEC1Ev@plt>
  4017ca:	48 8d 55 bf          	lea    -0x41(%rbp),%rdx
  4017ce:	48 8d 45 c0          	lea    -0x40(%rbp),%rax
  4017d2:	be fe 53 40 00       	mov    $0x4053fe,%esi
  4017d7:	48 89 c7             	mov    %rax,%rdi
  4017da:	e8 21 fe ff ff       	callq  401600 <_ZNSt7__cxx1112basic_stringIcSt11char_traitsIcESaIcEEC1EPKcRKS3_@plt>
  4017df:	48 8d 45 c0          	lea    -0x40(%rbp),%rax
  4017e3:	48 89 c6             	mov    %rax,%rsi
  4017e6:	bf e0 73 60 00       	mov    $0x6073e0,%edi
  4017eb:	e8 ce 2f 00 00       	callq  4047be <_ZNSt6vectorINSt7__cxx1112basic_stringIcSt11char_traitsIcESaIcEEESaIS5_EE9push_backEOS5_>
  4017f0:	48 8d 45 c0          	lea    -0x40(%rbp),%rax
  4017f4:	48 89 c7             	mov    %rax,%rdi
  4017f7:	e8 d4 fc ff ff       	callq  4014d0 <_ZNSt7__cxx1112basic_stringIcSt11char_traitsIcESaIcEED1Ev@plt>
  4017fc:	48 8d 45 bf          	lea    -0x41(%rbp),%rax
  401800:	48 89 c7             	mov    %rax,%rdi
  401803:	e8 28 fd ff ff       	callq  401530 <_ZNSaIcED1Ev@plt>
  401808:	48 8d 45 bf          	lea    -0x41(%rbp),%rax
  40180c:	48 89 c7             	mov    %rax,%rdi
  40180f:	e8 0c fe ff ff       	callq  401620 <_ZNSaIcEC1Ev@plt>
  401814:	48 8d 55 bf          	lea    -0x41(%rbp),%rdx
  401818:	48 8d 45 c0          	lea    -0x40(%rbp),%rax
  40181c:	be 06 54 40 00       	mov    $0x405406,%esi
  401821:	48 89 c7             	mov    %rax,%rdi
  401824:	e8 d7 fd ff ff       	callq  401600 <_ZNSt7__cxx1112basic_stringIcSt11char_traitsIcESaIcEEC1EPKcRKS3_@plt>
  401829:	48 8d 45 c0          	lea    -0x40(%rbp),%rax
  40182d:	48 89 c6             	mov    %rax,%rsi
  401830:	bf e0 73 60 00       	mov    $0x6073e0,%edi
  401835:	e8 84 2f 00 00       	callq  4047be <_ZNSt6vectorINSt7__cxx1112basic_stringIcSt11char_traitsIcESaIcEEESaIS5_EE9push_backEOS5_>
  40183a:	48 8d 45 c0          	lea    -0x40(%rbp),%rax
  40183e:	48 89 c7             	mov    %rax,%rdi
  401841:	e8 8a fc ff ff       	callq  4014d0 <_ZNSt7__cxx1112basic_stringIcSt11char_traitsIcESaIcEED1Ev@plt>
  401846:	48 8d 45 bf          	lea    -0x41(%rbp),%rax
  40184a:	48 89 c7             	mov    %rax,%rdi
  40184d:	e8 de fc ff ff       	callq  401530 <_ZNSaIcED1Ev@plt>
  401852:	48 8d 45 bf          	lea    -0x41(%rbp),%rax
  401856:	48 89 c7             	mov    %rax,%rdi
  401859:	e8 c2 fd ff ff       	callq  401620 <_ZNSaIcEC1Ev@plt>
  40185e:	48 8d 55 bf          	lea    -0x41(%rbp),%rdx
  401862:	48 8d 45 c0          	lea    -0x40(%rbp),%rax
  401866:	be 0e 54 40 00       	mov    $0x40540e,%esi
  40186b:	48 89 c7             	mov    %rax,%rdi
  40186e:	e8 8d fd ff ff       	callq  401600 <_ZNSt7__cxx1112basic_stringIcSt11char_traitsIcESaIcEEC1EPKcRKS3_@plt>
  401873:	48 8d 45 c0          	lea    -0x40(%rbp),%rax
  401877:	48 89 c6             	mov    %rax,%rsi
  40187a:	bf e0 73 60 00       	mov    $0x6073e0,%edi
  40187f:	e8 3a 2f 00 00       	callq  4047be <_ZNSt6vectorINSt7__cxx1112basic_stringIcSt11char_traitsIcESaIcEEESaIS5_EE9push_backEOS5_>
  401884:	48 8d 45 c0          	lea    -0x40(%rbp),%rax
  401888:	48 89 c7             	mov    %rax,%rdi
  40188b:	e8 40 fc ff ff       	callq  4014d0 <_ZNSt7__cxx1112basic_stringIcSt11char_traitsIcESaIcEED1Ev@plt>
  401890:	48 8d 45 bf          	lea    -0x41(%rbp),%rax
  401894:	48 89 c7             	mov    %rax,%rdi
  401897:	e8 94 fc ff ff       	callq  401530 <_ZNSaIcED1Ev@plt>
  40189c:	48 8d 45 bf          	lea    -0x41(%rbp),%rax
  4018a0:	48 89 c7             	mov    %rax,%rdi
  4018a3:	e8 78 fd ff ff       	callq  401620 <_ZNSaIcEC1Ev@plt>
  4018a8:	48 8d 55 bf          	lea    -0x41(%rbp),%rdx
  4018ac:	48 8d 45 c0          	lea    -0x40(%rbp),%rax
  4018b0:	be 16 54 40 00       	mov    $0x405416,%esi
  4018b5:	48 89 c7             	mov    %rax,%rdi
  4018b8:	e8 43 fd ff ff       	callq  401600 <_ZNSt7__cxx1112basic_stringIcSt11char_traitsIcESaIcEEC1EPKcRKS3_@plt>
  4018bd:	48 8d 45 c0          	lea    -0x40(%rbp),%rax
  4018c1:	48 89 c6             	mov    %rax,%rsi
  4018c4:	bf e0 73 60 00       	mov    $0x6073e0,%edi
  4018c9:	e8 f0 2e 00 00       	callq  4047be <_ZNSt6vectorINSt7__cxx1112basic_stringIcSt11char_traitsIcESaIcEEESaIS5_EE9push_backEOS5_>
  4018ce:	48 8d 45 c0          	lea    -0x40(%rbp),%rax
  4018d2:	48 89 c7             	mov    %rax,%rdi
  4018d5:	e8 f6 fb ff ff       	callq  4014d0 <_ZNSt7__cxx1112basic_stringIcSt11char_traitsIcESaIcEED1Ev@plt>
  4018da:	48 8d 45 bf          	lea    -0x41(%rbp),%rax
  4018de:	48 89 c7             	mov    %rax,%rdi
  4018e1:	e8 4a fc ff ff       	callq  401530 <_ZNSaIcED1Ev@plt>
  4018e6:	48 8d 45 bf          	lea    -0x41(%rbp),%rax
  4018ea:	48 89 c7             	mov    %rax,%rdi
  4018ed:	e8 2e fd ff ff       	callq  401620 <_ZNSaIcEC1Ev@plt>
  4018f2:	48 8d 55 bf          	lea    -0x41(%rbp),%rdx
  4018f6:	48 8d 45 c0          	lea    -0x40(%rbp),%rax
  4018fa:	be 1e 54 40 00       	mov    $0x40541e,%esi
  4018ff:	48 89 c7             	mov    %rax,%rdi
  401902:	e8 f9 fc ff ff       	callq  401600 <_ZNSt7__cxx1112basic_stringIcSt11char_traitsIcESaIcEEC1EPKcRKS3_@plt>
  401907:	48 8d 45 c0          	lea    -0x40(%rbp),%rax
  40190b:	48 89 c6             	mov    %rax,%rsi
  40190e:	bf e0 73 60 00       	mov    $0x6073e0,%edi
  401913:	e8 a6 2e 00 00       	callq  4047be <_ZNSt6vectorINSt7__cxx1112basic_stringIcSt11char_traitsIcESaIcEEESaIS5_EE9push_backEOS5_>
  401918:	48 8d 45 c0          	lea    -0x40(%rbp),%rax
  40191c:	48 89 c7             	mov    %rax,%rdi
  40191f:	e8 ac fb ff ff       	callq  4014d0 <_ZNSt7__cxx1112basic_stringIcSt11char_traitsIcESaIcEED1Ev@plt>
  401924:	48 8d 45 bf          	lea    -0x41(%rbp),%rax
  401928:	48 89 c7             	mov    %rax,%rdi
  40192b:	e8 00 fc ff ff       	callq  401530 <_ZNSaIcED1Ev@plt>
  401930:	48 8d 45 bf          	lea    -0x41(%rbp),%rax
  401934:	48 89 c7             	mov    %rax,%rdi
  401937:	e8 e4 fc ff ff       	callq  401620 <_ZNSaIcEC1Ev@plt>
  40193c:	48 8d 55 bf          	lea    -0x41(%rbp),%rdx
  401940:	48 8d 45 c0          	lea    -0x40(%rbp),%rax
  401944:	be 26 54 40 00       	mov    $0x405426,%esi
  401949:	48 89 c7             	mov    %rax,%rdi
  40194c:	e8 af fc ff ff       	callq  401600 <_ZNSt7__cxx1112basic_stringIcSt11char_traitsIcESaIcEEC1EPKcRKS3_@plt>
  401951:	48 8d 45 c0          	lea    -0x40(%rbp),%rax
  401955:	48 89 c6             	mov    %rax,%rsi
  401958:	bf e0 73 60 00       	mov    $0x6073e0,%edi
  40195d:	e8 5c 2e 00 00       	callq  4047be <_ZNSt6vectorINSt7__cxx1112basic_stringIcSt11char_traitsIcESaIcEEESaIS5_EE9push_backEOS5_>
  401962:	48 8d 45 c0          	lea    -0x40(%rbp),%rax
  401966:	48 89 c7             	mov    %rax,%rdi
  401969:	e8 62 fb ff ff       	callq  4014d0 <_ZNSt7__cxx1112basic_stringIcSt11char_traitsIcESaIcEED1Ev@plt>
  40196e:	48 8d 45 bf          	lea    -0x41(%rbp),%rax
  401972:	48 89 c7             	mov    %rax,%rdi
  401975:	e8 b6 fb ff ff       	callq  401530 <_ZNSaIcED1Ev@plt>
  40197a:	48 8d 45 bf          	lea    -0x41(%rbp),%rax
  40197e:	48 89 c7             	mov    %rax,%rdi
  401981:	e8 9a fc ff ff       	callq  401620 <_ZNSaIcEC1Ev@plt>
  401986:	48 8d 55 bf          	lea    -0x41(%rbp),%rdx
  40198a:	48 8d 45 c0          	lea    -0x40(%rbp),%rax
  40198e:	be 2e 54 40 00       	mov    $0x40542e,%esi
  401993:	48 89 c7             	mov    %rax,%rdi
  401996:	e8 65 fc ff ff       	callq  401600 <_ZNSt7__cxx1112basic_stringIcSt11char_traitsIcESaIcEEC1EPKcRKS3_@plt>
  40199b:	48 8d 45 c0          	lea    -0x40(%rbp),%rax
  40199f:	48 89 c6             	mov    %rax,%rsi
  4019a2:	bf e0 73 60 00       	mov    $0x6073e0,%edi
  4019a7:	e8 12 2e 00 00       	callq  4047be <_ZNSt6vectorINSt7__cxx1112basic_stringIcSt11char_traitsIcESaIcEEESaIS5_EE9push_backEOS5_>
  4019ac:	48 8d 45 c0          	lea    -0x40(%rbp),%rax
  4019b0:	48 89 c7             	mov    %rax,%rdi
  4019b3:	e8 18 fb ff ff       	callq  4014d0 <_ZNSt7__cxx1112basic_stringIcSt11char_traitsIcESaIcEED1Ev@plt>
  4019b8:	48 8d 45 bf          	lea    -0x41(%rbp),%rax
  4019bc:	48 89 c7             	mov    %rax,%rdi
  4019bf:	e8 6c fb ff ff       	callq  401530 <_ZNSaIcED1Ev@plt>
  4019c4:	48 8d 45 bf          	lea    -0x41(%rbp),%rax
  4019c8:	48 89 c7             	mov    %rax,%rdi
  4019cb:	e8 50 fc ff ff       	callq  401620 <_ZNSaIcEC1Ev@plt>
  4019d0:	48 8d 55 bf          	lea    -0x41(%rbp),%rdx
  4019d4:	48 8d 45 c0          	lea    -0x40(%rbp),%rax
  4019d8:	be 36 54 40 00       	mov    $0x405436,%esi
  4019dd:	48 89 c7             	mov    %rax,%rdi
  4019e0:	e8 1b fc ff ff       	callq  401600 <_ZNSt7__cxx1112basic_stringIcSt11char_traitsIcESaIcEEC1EPKcRKS3_@plt>
  4019e5:	48 8d 45 c0          	lea    -0x40(%rbp),%rax
  4019e9:	48 89 c6             	mov    %rax,%rsi
  4019ec:	bf e0 73 60 00       	mov    $0x6073e0,%edi
  4019f1:	e8 c8 2d 00 00       	callq  4047be <_ZNSt6vectorINSt7__cxx1112basic_stringIcSt11char_traitsIcESaIcEEESaIS5_EE9push_backEOS5_>
  4019f6:	48 8d 45 c0          	lea    -0x40(%rbp),%rax
  4019fa:	48 89 c7             	mov    %rax,%rdi
  4019fd:	e8 ce fa ff ff       	callq  4014d0 <_ZNSt7__cxx1112basic_stringIcSt11char_traitsIcESaIcEED1Ev@plt>
  401a02:	48 8d 45 bf          	lea    -0x41(%rbp),%rax
  401a06:	48 89 c7             	mov    %rax,%rdi
  401a09:	e8 22 fb ff ff       	callq  401530 <_ZNSaIcED1Ev@plt>
  401a0e:	48 8d 45 bf          	lea    -0x41(%rbp),%rax
  401a12:	48 89 c7             	mov    %rax,%rdi
  401a15:	e8 06 fc ff ff       	callq  401620 <_ZNSaIcEC1Ev@plt>
  401a1a:	48 8d 55 bf          	lea    -0x41(%rbp),%rdx
  401a1e:	48 8d 45 c0          	lea    -0x40(%rbp),%rax
  401a22:	be 3e 54 40 00       	mov    $0x40543e,%esi
  401a27:	48 89 c7             	mov    %rax,%rdi
  401a2a:	e8 d1 fb ff ff       	callq  401600 <_ZNSt7__cxx1112basic_stringIcSt11char_traitsIcESaIcEEC1EPKcRKS3_@plt>
  401a2f:	48 8d 45 c0          	lea    -0x40(%rbp),%rax
  401a33:	48 89 c6             	mov    %rax,%rsi
  401a36:	bf e0 73 60 00       	mov    $0x6073e0,%edi
  401a3b:	e8 7e 2d 00 00       	callq  4047be <_ZNSt6vectorINSt7__cxx1112basic_stringIcSt11char_traitsIcESaIcEEESaIS5_EE9push_backEOS5_>
  401a40:	48 8d 45 c0          	lea    -0x40(%rbp),%rax
  401a44:	48 89 c7             	mov    %rax,%rdi
  401a47:	e8 84 fa ff ff       	callq  4014d0 <_ZNSt7__cxx1112basic_stringIcSt11char_traitsIcESaIcEED1Ev@plt>
  401a4c:	48 8d 45 bf          	lea    -0x41(%rbp),%rax
  401a50:	48 89 c7             	mov    %rax,%rdi
  401a53:	e8 d8 fa ff ff       	callq  401530 <_ZNSaIcED1Ev@plt>
  401a58:	48 8d 45 bf          	lea    -0x41(%rbp),%rax
  401a5c:	48 89 c7             	mov    %rax,%rdi
  401a5f:	e8 bc fb ff ff       	callq  401620 <_ZNSaIcEC1Ev@plt>
  401a64:	48 8d 55 bf          	lea    -0x41(%rbp),%rdx
  401a68:	48 8d 45 c0          	lea    -0x40(%rbp),%rax
  401a6c:	be 46 54 40 00       	mov    $0x405446,%esi
  401a71:	48 89 c7             	mov    %rax,%rdi
  401a74:	e8 87 fb ff ff       	callq  401600 <_ZNSt7__cxx1112basic_stringIcSt11char_traitsIcESaIcEEC1EPKcRKS3_@plt>
  401a79:	48 8d 45 c0          	lea    -0x40(%rbp),%rax
  401a7d:	48 89 c6             	mov    %rax,%rsi
  401a80:	bf e0 73 60 00       	mov    $0x6073e0,%edi
  401a85:	e8 34 2d 00 00       	callq  4047be <_ZNSt6vectorINSt7__cxx1112basic_stringIcSt11char_traitsIcESaIcEEESaIS5_EE9push_backEOS5_>
  401a8a:	48 8d 45 c0          	lea    -0x40(%rbp),%rax
  401a8e:	48 89 c7             	mov    %rax,%rdi
  401a91:	e8 3a fa ff ff       	callq  4014d0 <_ZNSt7__cxx1112basic_stringIcSt11char_traitsIcESaIcEED1Ev@plt>
  401a96:	48 8d 45 bf          	lea    -0x41(%rbp),%rax
  401a9a:	48 89 c7             	mov    %rax,%rdi
  401a9d:	e8 8e fa ff ff       	callq  401530 <_ZNSaIcED1Ev@plt>
  401aa2:	48 8d 45 bf          	lea    -0x41(%rbp),%rax
  401aa6:	48 89 c7             	mov    %rax,%rdi
  401aa9:	e8 72 fb ff ff       	callq  401620 <_ZNSaIcEC1Ev@plt>
  401aae:	48 8d 55 bf          	lea    -0x41(%rbp),%rdx
  401ab2:	48 8d 45 c0          	lea    -0x40(%rbp),%rax
  401ab6:	be 4e 54 40 00       	mov    $0x40544e,%esi
  401abb:	48 89 c7             	mov    %rax,%rdi
  401abe:	e8 3d fb ff ff       	callq  401600 <_ZNSt7__cxx1112basic_stringIcSt11char_traitsIcESaIcEEC1EPKcRKS3_@plt>
  401ac3:	48 8d 45 c0          	lea    -0x40(%rbp),%rax
  401ac7:	48 89 c6             	mov    %rax,%rsi
  401aca:	bf e0 73 60 00       	mov    $0x6073e0,%edi
  401acf:	e8 ea 2c 00 00       	callq  4047be <_ZNSt6vectorINSt7__cxx1112basic_stringIcSt11char_traitsIcESaIcEEESaIS5_EE9push_backEOS5_>
  401ad4:	48 8d 45 c0          	lea    -0x40(%rbp),%rax
  401ad8:	48 89 c7             	mov    %rax,%rdi
  401adb:	e8 f0 f9 ff ff       	callq  4014d0 <_ZNSt7__cxx1112basic_stringIcSt11char_traitsIcESaIcEED1Ev@plt>
  401ae0:	48 8d 45 bf          	lea    -0x41(%rbp),%rax
  401ae4:	48 89 c7             	mov    %rax,%rdi
  401ae7:	e8 44 fa ff ff       	callq  401530 <_ZNSaIcED1Ev@plt>
  401aec:	48 8d 45 bf          	lea    -0x41(%rbp),%rax
  401af0:	48 89 c7             	mov    %rax,%rdi
  401af3:	e8 28 fb ff ff       	callq  401620 <_ZNSaIcEC1Ev@plt>
  401af8:	48 8d 55 bf          	lea    -0x41(%rbp),%rdx
  401afc:	48 8d 45 c0          	lea    -0x40(%rbp),%rax
  401b00:	be 56 54 40 00       	mov    $0x405456,%esi
  401b05:	48 89 c7             	mov    %rax,%rdi
  401b08:	e8 f3 fa ff ff       	callq  401600 <_ZNSt7__cxx1112basic_stringIcSt11char_traitsIcESaIcEEC1EPKcRKS3_@plt>
  401b0d:	48 8d 45 c0          	lea    -0x40(%rbp),%rax
  401b11:	48 89 c6             	mov    %rax,%rsi
  401b14:	bf e0 73 60 00       	mov    $0x6073e0,%edi
  401b19:	e8 a0 2c 00 00       	callq  4047be <_ZNSt6vectorINSt7__cxx1112basic_stringIcSt11char_traitsIcESaIcEEESaIS5_EE9push_backEOS5_>
  401b1e:	48 8d 45 c0          	lea    -0x40(%rbp),%rax
  401b22:	48 89 c7             	mov    %rax,%rdi
  401b25:	e8 a6 f9 ff ff       	callq  4014d0 <_ZNSt7__cxx1112basic_stringIcSt11char_traitsIcESaIcEED1Ev@plt>
  401b2a:	48 8d 45 bf          	lea    -0x41(%rbp),%rax
  401b2e:	48 89 c7             	mov    %rax,%rdi
  401b31:	e8 fa f9 ff ff       	callq  401530 <_ZNSaIcED1Ev@plt>
  401b36:	48 8d 45 bf          	lea    -0x41(%rbp),%rax
  401b3a:	48 89 c7             	mov    %rax,%rdi
  401b3d:	e8 de fa ff ff       	callq  401620 <_ZNSaIcEC1Ev@plt>
  401b42:	48 8d 55 bf          	lea    -0x41(%rbp),%rdx
  401b46:	48 8d 45 c0          	lea    -0x40(%rbp),%rax
  401b4a:	be 5e 54 40 00       	mov    $0x40545e,%esi
  401b4f:	48 89 c7             	mov    %rax,%rdi
  401b52:	e8 a9 fa ff ff       	callq  401600 <_ZNSt7__cxx1112basic_stringIcSt11char_traitsIcESaIcEEC1EPKcRKS3_@plt>
  401b57:	48 8d 45 c0          	lea    -0x40(%rbp),%rax
  401b5b:	48 89 c6             	mov    %rax,%rsi
  401b5e:	bf e0 73 60 00       	mov    $0x6073e0,%edi
  401b63:	e8 56 2c 00 00       	callq  4047be <_ZNSt6vectorINSt7__cxx1112basic_stringIcSt11char_traitsIcESaIcEEESaIS5_EE9push_backEOS5_>
  401b68:	48 8d 45 c0          	lea    -0x40(%rbp),%rax
  401b6c:	48 89 c7             	mov    %rax,%rdi
  401b6f:	e8 5c f9 ff ff       	callq  4014d0 <_ZNSt7__cxx1112basic_stringIcSt11char_traitsIcESaIcEED1Ev@plt>
  401b74:	48 8d 45 bf          	lea    -0x41(%rbp),%rax
  401b78:	48 89 c7             	mov    %rax,%rdi
  401b7b:	e8 b0 f9 ff ff       	callq  401530 <_ZNSaIcED1Ev@plt>
  401b80:	48 8d 45 bf          	lea    -0x41(%rbp),%rax
  401b84:	48 89 c7             	mov    %rax,%rdi
  401b87:	e8 94 fa ff ff       	callq  401620 <_ZNSaIcEC1Ev@plt>
  401b8c:	48 8d 55 bf          	lea    -0x41(%rbp),%rdx
  401b90:	48 8d 45 c0          	lea    -0x40(%rbp),%rax
  401b94:	be 66 54 40 00       	mov    $0x405466,%esi
  401b99:	48 89 c7             	mov    %rax,%rdi
  401b9c:	e8 5f fa ff ff       	callq  401600 <_ZNSt7__cxx1112basic_stringIcSt11char_traitsIcESaIcEEC1EPKcRKS3_@plt>
  401ba1:	48 8d 45 c0          	lea    -0x40(%rbp),%rax
  401ba5:	48 89 c6             	mov    %rax,%rsi
  401ba8:	bf e0 73 60 00       	mov    $0x6073e0,%edi
  401bad:	e8 0c 2c 00 00       	callq  4047be <_ZNSt6vectorINSt7__cxx1112basic_stringIcSt11char_traitsIcESaIcEEESaIS5_EE9push_backEOS5_>
  401bb2:	48 8d 45 c0          	lea    -0x40(%rbp),%rax
  401bb6:	48 89 c7             	mov    %rax,%rdi
  401bb9:	e8 12 f9 ff ff       	callq  4014d0 <_ZNSt7__cxx1112basic_stringIcSt11char_traitsIcESaIcEED1Ev@plt>
  401bbe:	48 8d 45 bf          	lea    -0x41(%rbp),%rax
  401bc2:	48 89 c7             	mov    %rax,%rdi
  401bc5:	e8 66 f9 ff ff       	callq  401530 <_ZNSaIcED1Ev@plt>
  401bca:	48 8d 45 bf          	lea    -0x41(%rbp),%rax
  401bce:	48 89 c7             	mov    %rax,%rdi
  401bd1:	e8 4a fa ff ff       	callq  401620 <_ZNSaIcEC1Ev@plt>
  401bd6:	48 8d 55 bf          	lea    -0x41(%rbp),%rdx
  401bda:	48 8d 45 c0          	lea    -0x40(%rbp),%rax
  401bde:	be 6e 54 40 00       	mov    $0x40546e,%esi
  401be3:	48 89 c7             	mov    %rax,%rdi
  401be6:	e8 15 fa ff ff       	callq  401600 <_ZNSt7__cxx1112basic_stringIcSt11char_traitsIcESaIcEEC1EPKcRKS3_@plt>
  401beb:	48 8d 45 c0          	lea    -0x40(%rbp),%rax
  401bef:	48 89 c6             	mov    %rax,%rsi
  401bf2:	bf e0 73 60 00       	mov    $0x6073e0,%edi
  401bf7:	e8 c2 2b 00 00       	callq  4047be <_ZNSt6vectorINSt7__cxx1112basic_stringIcSt11char_traitsIcESaIcEEESaIS5_EE9push_backEOS5_>
  401bfc:	48 8d 45 c0          	lea    -0x40(%rbp),%rax
  401c00:	48 89 c7             	mov    %rax,%rdi
  401c03:	e8 c8 f8 ff ff       	callq  4014d0 <_ZNSt7__cxx1112basic_stringIcSt11char_traitsIcESaIcEED1Ev@plt>
  401c08:	48 8d 45 bf          	lea    -0x41(%rbp),%rax
  401c0c:	48 89 c7             	mov    %rax,%rdi
  401c0f:	e8 1c f9 ff ff       	callq  401530 <_ZNSaIcED1Ev@plt>
  401c14:	48 8d 45 bf          	lea    -0x41(%rbp),%rax
  401c18:	48 89 c7             	mov    %rax,%rdi
  401c1b:	e8 00 fa ff ff       	callq  401620 <_ZNSaIcEC1Ev@plt>
  401c20:	48 8d 55 bf          	lea    -0x41(%rbp),%rdx
  401c24:	48 8d 45 c0          	lea    -0x40(%rbp),%rax
  401c28:	be 76 54 40 00       	mov    $0x405476,%esi
  401c2d:	48 89 c7             	mov    %rax,%rdi
  401c30:	e8 cb f9 ff ff       	callq  401600 <_ZNSt7__cxx1112basic_stringIcSt11char_traitsIcESaIcEEC1EPKcRKS3_@plt>
  401c35:	48 8d 45 c0          	lea    -0x40(%rbp),%rax
  401c39:	48 89 c6             	mov    %rax,%rsi
  401c3c:	bf e0 73 60 00       	mov    $0x6073e0,%edi
  401c41:	e8 78 2b 00 00       	callq  4047be <_ZNSt6vectorINSt7__cxx1112basic_stringIcSt11char_traitsIcESaIcEEESaIS5_EE9push_backEOS5_>
  401c46:	48 8d 45 c0          	lea    -0x40(%rbp),%rax
  401c4a:	48 89 c7             	mov    %rax,%rdi
  401c4d:	e8 7e f8 ff ff       	callq  4014d0 <_ZNSt7__cxx1112basic_stringIcSt11char_traitsIcESaIcEED1Ev@plt>
  401c52:	48 8d 45 bf          	lea    -0x41(%rbp),%rax
  401c56:	48 89 c7             	mov    %rax,%rdi
  401c59:	e8 d2 f8 ff ff       	callq  401530 <_ZNSaIcED1Ev@plt>
  401c5e:	48 8d 45 bf          	lea    -0x41(%rbp),%rax
  401c62:	48 89 c7             	mov    %rax,%rdi
  401c65:	e8 b6 f9 ff ff       	callq  401620 <_ZNSaIcEC1Ev@plt>
  401c6a:	48 8d 55 bf          	lea    -0x41(%rbp),%rdx
  401c6e:	48 8d 45 c0          	lea    -0x40(%rbp),%rax
  401c72:	be 7e 54 40 00       	mov    $0x40547e,%esi
  401c77:	48 89 c7             	mov    %rax,%rdi
  401c7a:	e8 81 f9 ff ff       	callq  401600 <_ZNSt7__cxx1112basic_stringIcSt11char_traitsIcESaIcEEC1EPKcRKS3_@plt>
  401c7f:	48 8d 45 c0          	lea    -0x40(%rbp),%rax
  401c83:	48 89 c6             	mov    %rax,%rsi
  401c86:	bf e0 73 60 00       	mov    $0x6073e0,%edi
  401c8b:	e8 2e 2b 00 00       	callq  4047be <_ZNSt6vectorINSt7__cxx1112basic_stringIcSt11char_traitsIcESaIcEEESaIS5_EE9push_backEOS5_>
  401c90:	48 8d 45 c0          	lea    -0x40(%rbp),%rax
  401c94:	48 89 c7             	mov    %rax,%rdi
  401c97:	e8 34 f8 ff ff       	callq  4014d0 <_ZNSt7__cxx1112basic_stringIcSt11char_traitsIcESaIcEED1Ev@plt>
  401c9c:	48 8d 45 bf          	lea    -0x41(%rbp),%rax
  401ca0:	48 89 c7             	mov    %rax,%rdi
  401ca3:	e8 88 f8 ff ff       	callq  401530 <_ZNSaIcED1Ev@plt>
  401ca8:	48 8d 45 bf          	lea    -0x41(%rbp),%rax
  401cac:	48 89 c7             	mov    %rax,%rdi
  401caf:	e8 6c f9 ff ff       	callq  401620 <_ZNSaIcEC1Ev@plt>
  401cb4:	48 8d 55 bf          	lea    -0x41(%rbp),%rdx
  401cb8:	48 8d 45 c0          	lea    -0x40(%rbp),%rax
  401cbc:	be 86 54 40 00       	mov    $0x405486,%esi
  401cc1:	48 89 c7             	mov    %rax,%rdi
  401cc4:	e8 37 f9 ff ff       	callq  401600 <_ZNSt7__cxx1112basic_stringIcSt11char_traitsIcESaIcEEC1EPKcRKS3_@plt>
  401cc9:	48 8d 45 c0          	lea    -0x40(%rbp),%rax
  401ccd:	48 89 c6             	mov    %rax,%rsi
  401cd0:	bf e0 73 60 00       	mov    $0x6073e0,%edi
  401cd5:	e8 e4 2a 00 00       	callq  4047be <_ZNSt6vectorINSt7__cxx1112basic_stringIcSt11char_traitsIcESaIcEEESaIS5_EE9push_backEOS5_>
  401cda:	48 8d 45 c0          	lea    -0x40(%rbp),%rax
  401cde:	48 89 c7             	mov    %rax,%rdi
  401ce1:	e8 ea f7 ff ff       	callq  4014d0 <_ZNSt7__cxx1112basic_stringIcSt11char_traitsIcESaIcEED1Ev@plt>
  401ce6:	48 8d 45 bf          	lea    -0x41(%rbp),%rax
  401cea:	48 89 c7             	mov    %rax,%rdi
  401ced:	e8 3e f8 ff ff       	callq  401530 <_ZNSaIcED1Ev@plt>
  401cf2:	48 8d 45 bf          	lea    -0x41(%rbp),%rax
  401cf6:	48 89 c7             	mov    %rax,%rdi
  401cf9:	e8 22 f9 ff ff       	callq  401620 <_ZNSaIcEC1Ev@plt>
  401cfe:	48 8d 55 bf          	lea    -0x41(%rbp),%rdx
  401d02:	48 8d 45 c0          	lea    -0x40(%rbp),%rax
  401d06:	be 8e 54 40 00       	mov    $0x40548e,%esi
  401d0b:	48 89 c7             	mov    %rax,%rdi
  401d0e:	e8 ed f8 ff ff       	callq  401600 <_ZNSt7__cxx1112basic_stringIcSt11char_traitsIcESaIcEEC1EPKcRKS3_@plt>
  401d13:	48 8d 45 c0          	lea    -0x40(%rbp),%rax
  401d17:	48 89 c6             	mov    %rax,%rsi
  401d1a:	bf e0 73 60 00       	mov    $0x6073e0,%edi
  401d1f:	e8 9a 2a 00 00       	callq  4047be <_ZNSt6vectorINSt7__cxx1112basic_stringIcSt11char_traitsIcESaIcEEESaIS5_EE9push_backEOS5_>
  401d24:	48 8d 45 c0          	lea    -0x40(%rbp),%rax
  401d28:	48 89 c7             	mov    %rax,%rdi
  401d2b:	e8 a0 f7 ff ff       	callq  4014d0 <_ZNSt7__cxx1112basic_stringIcSt11char_traitsIcESaIcEED1Ev@plt>
  401d30:	48 8d 45 bf          	lea    -0x41(%rbp),%rax
  401d34:	48 89 c7             	mov    %rax,%rdi
  401d37:	e8 f4 f7 ff ff       	callq  401530 <_ZNSaIcED1Ev@plt>
  401d3c:	48 8d 45 bf          	lea    -0x41(%rbp),%rax
  401d40:	48 89 c7             	mov    %rax,%rdi
  401d43:	e8 d8 f8 ff ff       	callq  401620 <_ZNSaIcEC1Ev@plt>
  401d48:	48 8d 55 bf          	lea    -0x41(%rbp),%rdx
  401d4c:	48 8d 45 c0          	lea    -0x40(%rbp),%rax
  401d50:	be 96 54 40 00       	mov    $0x405496,%esi
  401d55:	48 89 c7             	mov    %rax,%rdi
  401d58:	e8 a3 f8 ff ff       	callq  401600 <_ZNSt7__cxx1112basic_stringIcSt11char_traitsIcESaIcEEC1EPKcRKS3_@plt>
  401d5d:	48 8d 45 c0          	lea    -0x40(%rbp),%rax
  401d61:	48 89 c6             	mov    %rax,%rsi
  401d64:	bf e0 73 60 00       	mov    $0x6073e0,%edi
  401d69:	e8 50 2a 00 00       	callq  4047be <_ZNSt6vectorINSt7__cxx1112basic_stringIcSt11char_traitsIcESaIcEEESaIS5_EE9push_backEOS5_>
  401d6e:	48 8d 45 c0          	lea    -0x40(%rbp),%rax
  401d72:	48 89 c7             	mov    %rax,%rdi
  401d75:	e8 56 f7 ff ff       	callq  4014d0 <_ZNSt7__cxx1112basic_stringIcSt11char_traitsIcESaIcEED1Ev@plt>
  401d7a:	48 8d 45 bf          	lea    -0x41(%rbp),%rax
  401d7e:	48 89 c7             	mov    %rax,%rdi
  401d81:	e8 aa f7 ff ff       	callq  401530 <_ZNSaIcED1Ev@plt>
  401d86:	48 8d 45 bf          	lea    -0x41(%rbp),%rax
  401d8a:	48 89 c7             	mov    %rax,%rdi
  401d8d:	e8 8e f8 ff ff       	callq  401620 <_ZNSaIcEC1Ev@plt>
  401d92:	48 8d 55 bf          	lea    -0x41(%rbp),%rdx
  401d96:	48 8d 45 c0          	lea    -0x40(%rbp),%rax
  401d9a:	be 9e 54 40 00       	mov    $0x40549e,%esi
  401d9f:	48 89 c7             	mov    %rax,%rdi
  401da2:	e8 59 f8 ff ff       	callq  401600 <_ZNSt7__cxx1112basic_stringIcSt11char_traitsIcESaIcEEC1EPKcRKS3_@plt>
  401da7:	48 8d 45 c0          	lea    -0x40(%rbp),%rax
  401dab:	48 89 c6             	mov    %rax,%rsi
  401dae:	bf e0 73 60 00       	mov    $0x6073e0,%edi
  401db3:	e8 06 2a 00 00       	callq  4047be <_ZNSt6vectorINSt7__cxx1112basic_stringIcSt11char_traitsIcESaIcEEESaIS5_EE9push_backEOS5_>
  401db8:	48 8d 45 c0          	lea    -0x40(%rbp),%rax
  401dbc:	48 89 c7             	mov    %rax,%rdi
  401dbf:	e8 0c f7 ff ff       	callq  4014d0 <_ZNSt7__cxx1112basic_stringIcSt11char_traitsIcESaIcEED1Ev@plt>
  401dc4:	48 8d 45 bf          	lea    -0x41(%rbp),%rax
  401dc8:	48 89 c7             	mov    %rax,%rdi
  401dcb:	e8 60 f7 ff ff       	callq  401530 <_ZNSaIcED1Ev@plt>
  401dd0:	48 8d 45 bf          	lea    -0x41(%rbp),%rax
  401dd4:	48 89 c7             	mov    %rax,%rdi
  401dd7:	e8 44 f8 ff ff       	callq  401620 <_ZNSaIcEC1Ev@plt>
  401ddc:	48 8d 55 bf          	lea    -0x41(%rbp),%rdx
  401de0:	48 8d 45 c0          	lea    -0x40(%rbp),%rax
  401de4:	be a6 54 40 00       	mov    $0x4054a6,%esi
  401de9:	48 89 c7             	mov    %rax,%rdi
  401dec:	e8 0f f8 ff ff       	callq  401600 <_ZNSt7__cxx1112basic_stringIcSt11char_traitsIcESaIcEEC1EPKcRKS3_@plt>
  401df1:	48 8d 45 c0          	lea    -0x40(%rbp),%rax
  401df5:	48 89 c6             	mov    %rax,%rsi
  401df8:	bf e0 73 60 00       	mov    $0x6073e0,%edi
  401dfd:	e8 bc 29 00 00       	callq  4047be <_ZNSt6vectorINSt7__cxx1112basic_stringIcSt11char_traitsIcESaIcEEESaIS5_EE9push_backEOS5_>
  401e02:	48 8d 45 c0          	lea    -0x40(%rbp),%rax
  401e06:	48 89 c7             	mov    %rax,%rdi
  401e09:	e8 c2 f6 ff ff       	callq  4014d0 <_ZNSt7__cxx1112basic_stringIcSt11char_traitsIcESaIcEED1Ev@plt>
  401e0e:	48 8d 45 bf          	lea    -0x41(%rbp),%rax
  401e12:	48 89 c7             	mov    %rax,%rdi
  401e15:	e8 16 f7 ff ff       	callq  401530 <_ZNSaIcED1Ev@plt>
  401e1a:	48 8d 45 bf          	lea    -0x41(%rbp),%rax
  401e1e:	48 89 c7             	mov    %rax,%rdi
  401e21:	e8 fa f7 ff ff       	callq  401620 <_ZNSaIcEC1Ev@plt>
  401e26:	48 8d 55 bf          	lea    -0x41(%rbp),%rdx
  401e2a:	48 8d 45 c0          	lea    -0x40(%rbp),%rax
  401e2e:	be ae 54 40 00       	mov    $0x4054ae,%esi
  401e33:	48 89 c7             	mov    %rax,%rdi
  401e36:	e8 c5 f7 ff ff       	callq  401600 <_ZNSt7__cxx1112basic_stringIcSt11char_traitsIcESaIcEEC1EPKcRKS3_@plt>
  401e3b:	48 8d 45 c0          	lea    -0x40(%rbp),%rax
  401e3f:	48 89 c6             	mov    %rax,%rsi
  401e42:	bf e0 73 60 00       	mov    $0x6073e0,%edi
  401e47:	e8 72 29 00 00       	callq  4047be <_ZNSt6vectorINSt7__cxx1112basic_stringIcSt11char_traitsIcESaIcEEESaIS5_EE9push_backEOS5_>
  401e4c:	48 8d 45 c0          	lea    -0x40(%rbp),%rax
  401e50:	48 89 c7             	mov    %rax,%rdi
  401e53:	e8 78 f6 ff ff       	callq  4014d0 <_ZNSt7__cxx1112basic_stringIcSt11char_traitsIcESaIcEED1Ev@plt>
  401e58:	48 8d 45 bf          	lea    -0x41(%rbp),%rax
  401e5c:	48 89 c7             	mov    %rax,%rdi
  401e5f:	e8 cc f6 ff ff       	callq  401530 <_ZNSaIcED1Ev@plt>
  401e64:	48 8d 45 bf          	lea    -0x41(%rbp),%rax
  401e68:	48 89 c7             	mov    %rax,%rdi
  401e6b:	e8 b0 f7 ff ff       	callq  401620 <_ZNSaIcEC1Ev@plt>
  401e70:	48 8d 55 bf          	lea    -0x41(%rbp),%rdx
  401e74:	48 8d 45 c0          	lea    -0x40(%rbp),%rax
  401e78:	be b6 54 40 00       	mov    $0x4054b6,%esi
  401e7d:	48 89 c7             	mov    %rax,%rdi
  401e80:	e8 7b f7 ff ff       	callq  401600 <_ZNSt7__cxx1112basic_stringIcSt11char_traitsIcESaIcEEC1EPKcRKS3_@plt>
  401e85:	48 8d 45 c0          	lea    -0x40(%rbp),%rax
  401e89:	48 89 c6             	mov    %rax,%rsi
  401e8c:	bf e0 73 60 00       	mov    $0x6073e0,%edi
  401e91:	e8 28 29 00 00       	callq  4047be <_ZNSt6vectorINSt7__cxx1112basic_stringIcSt11char_traitsIcESaIcEEESaIS5_EE9push_backEOS5_>
  401e96:	48 8d 45 c0          	lea    -0x40(%rbp),%rax
  401e9a:	48 89 c7             	mov    %rax,%rdi
  401e9d:	e8 2e f6 ff ff       	callq  4014d0 <_ZNSt7__cxx1112basic_stringIcSt11char_traitsIcESaIcEED1Ev@plt>
  401ea2:	48 8d 45 bf          	lea    -0x41(%rbp),%rax
  401ea6:	48 89 c7             	mov    %rax,%rdi
  401ea9:	e8 82 f6 ff ff       	callq  401530 <_ZNSaIcED1Ev@plt>
  401eae:	48 8d 45 bf          	lea    -0x41(%rbp),%rax
  401eb2:	48 89 c7             	mov    %rax,%rdi
  401eb5:	e8 66 f7 ff ff       	callq  401620 <_ZNSaIcEC1Ev@plt>
  401eba:	48 8d 55 bf          	lea    -0x41(%rbp),%rdx
  401ebe:	48 8d 45 c0          	lea    -0x40(%rbp),%rax
  401ec2:	be be 54 40 00       	mov    $0x4054be,%esi
  401ec7:	48 89 c7             	mov    %rax,%rdi
  401eca:	e8 31 f7 ff ff       	callq  401600 <_ZNSt7__cxx1112basic_stringIcSt11char_traitsIcESaIcEEC1EPKcRKS3_@plt>
  401ecf:	48 8d 45 c0          	lea    -0x40(%rbp),%rax
  401ed3:	48 89 c6             	mov    %rax,%rsi
  401ed6:	bf e0 73 60 00       	mov    $0x6073e0,%edi
  401edb:	e8 de 28 00 00       	callq  4047be <_ZNSt6vectorINSt7__cxx1112basic_stringIcSt11char_traitsIcESaIcEEESaIS5_EE9push_backEOS5_>
  401ee0:	48 8d 45 c0          	lea    -0x40(%rbp),%rax
  401ee4:	48 89 c7             	mov    %rax,%rdi
  401ee7:	e8 e4 f5 ff ff       	callq  4014d0 <_ZNSt7__cxx1112basic_stringIcSt11char_traitsIcESaIcEED1Ev@plt>
  401eec:	48 8d 45 bf          	lea    -0x41(%rbp),%rax
  401ef0:	48 89 c7             	mov    %rax,%rdi
  401ef3:	e8 38 f6 ff ff       	callq  401530 <_ZNSaIcED1Ev@plt>
  401ef8:	48 8d 45 bf          	lea    -0x41(%rbp),%rax
  401efc:	48 89 c7             	mov    %rax,%rdi
  401eff:	e8 1c f7 ff ff       	callq  401620 <_ZNSaIcEC1Ev@plt>
  401f04:	48 8d 55 bf          	lea    -0x41(%rbp),%rdx
  401f08:	48 8d 45 c0          	lea    -0x40(%rbp),%rax
  401f0c:	be c6 54 40 00       	mov    $0x4054c6,%esi
  401f11:	48 89 c7             	mov    %rax,%rdi
  401f14:	e8 e7 f6 ff ff       	callq  401600 <_ZNSt7__cxx1112basic_stringIcSt11char_traitsIcESaIcEEC1EPKcRKS3_@plt>
  401f19:	48 8d 45 c0          	lea    -0x40(%rbp),%rax
  401f1d:	48 89 c6             	mov    %rax,%rsi
  401f20:	bf e0 73 60 00       	mov    $0x6073e0,%edi
  401f25:	e8 94 28 00 00       	callq  4047be <_ZNSt6vectorINSt7__cxx1112basic_stringIcSt11char_traitsIcESaIcEEESaIS5_EE9push_backEOS5_>
  401f2a:	48 8d 45 c0          	lea    -0x40(%rbp),%rax
  401f2e:	48 89 c7             	mov    %rax,%rdi
  401f31:	e8 9a f5 ff ff       	callq  4014d0 <_ZNSt7__cxx1112basic_stringIcSt11char_traitsIcESaIcEED1Ev@plt>
  401f36:	48 8d 45 bf          	lea    -0x41(%rbp),%rax
  401f3a:	48 89 c7             	mov    %rax,%rdi
  401f3d:	e8 ee f5 ff ff       	callq  401530 <_ZNSaIcED1Ev@plt>
  401f42:	48 8d 45 bf          	lea    -0x41(%rbp),%rax
  401f46:	48 89 c7             	mov    %rax,%rdi
  401f49:	e8 d2 f6 ff ff       	callq  401620 <_ZNSaIcEC1Ev@plt>
  401f4e:	48 8d 55 bf          	lea    -0x41(%rbp),%rdx
  401f52:	48 8d 45 c0          	lea    -0x40(%rbp),%rax
  401f56:	be ce 54 40 00       	mov    $0x4054ce,%esi
  401f5b:	48 89 c7             	mov    %rax,%rdi
  401f5e:	e8 9d f6 ff ff       	callq  401600 <_ZNSt7__cxx1112basic_stringIcSt11char_traitsIcESaIcEEC1EPKcRKS3_@plt>
  401f63:	48 8d 45 c0          	lea    -0x40(%rbp),%rax
  401f67:	48 89 c6             	mov    %rax,%rsi
  401f6a:	bf e0 73 60 00       	mov    $0x6073e0,%edi
  401f6f:	e8 4a 28 00 00       	callq  4047be <_ZNSt6vectorINSt7__cxx1112basic_stringIcSt11char_traitsIcESaIcEEESaIS5_EE9push_backEOS5_>
  401f74:	48 8d 45 c0          	lea    -0x40(%rbp),%rax
  401f78:	48 89 c7             	mov    %rax,%rdi
  401f7b:	e8 50 f5 ff ff       	callq  4014d0 <_ZNSt7__cxx1112basic_stringIcSt11char_traitsIcESaIcEED1Ev@plt>
  401f80:	48 8d 45 bf          	lea    -0x41(%rbp),%rax
  401f84:	48 89 c7             	mov    %rax,%rdi
  401f87:	e8 a4 f5 ff ff       	callq  401530 <_ZNSaIcED1Ev@plt>
  401f8c:	48 8d 45 bf          	lea    -0x41(%rbp),%rax
  401f90:	48 89 c7             	mov    %rax,%rdi
  401f93:	e8 88 f6 ff ff       	callq  401620 <_ZNSaIcEC1Ev@plt>
  401f98:	48 8d 55 bf          	lea    -0x41(%rbp),%rdx
  401f9c:	48 8d 45 c0          	lea    -0x40(%rbp),%rax
  401fa0:	be d6 54 40 00       	mov    $0x4054d6,%esi
  401fa5:	48 89 c7             	mov    %rax,%rdi
  401fa8:	e8 53 f6 ff ff       	callq  401600 <_ZNSt7__cxx1112basic_stringIcSt11char_traitsIcESaIcEEC1EPKcRKS3_@plt>
  401fad:	48 8d 45 c0          	lea    -0x40(%rbp),%rax
  401fb1:	48 89 c6             	mov    %rax,%rsi
  401fb4:	bf e0 73 60 00       	mov    $0x6073e0,%edi
  401fb9:	e8 00 28 00 00       	callq  4047be <_ZNSt6vectorINSt7__cxx1112basic_stringIcSt11char_traitsIcESaIcEEESaIS5_EE9push_backEOS5_>
  401fbe:	48 8d 45 c0          	lea    -0x40(%rbp),%rax
  401fc2:	48 89 c7             	mov    %rax,%rdi
  401fc5:	e8 06 f5 ff ff       	callq  4014d0 <_ZNSt7__cxx1112basic_stringIcSt11char_traitsIcESaIcEED1Ev@plt>
  401fca:	48 8d 45 bf          	lea    -0x41(%rbp),%rax
  401fce:	48 89 c7             	mov    %rax,%rdi
  401fd1:	e8 5a f5 ff ff       	callq  401530 <_ZNSaIcED1Ev@plt>
  401fd6:	48 8d 45 bf          	lea    -0x41(%rbp),%rax
  401fda:	48 89 c7             	mov    %rax,%rdi
  401fdd:	e8 3e f6 ff ff       	callq  401620 <_ZNSaIcEC1Ev@plt>
  401fe2:	48 8d 55 bf          	lea    -0x41(%rbp),%rdx
  401fe6:	48 8d 45 c0          	lea    -0x40(%rbp),%rax
  401fea:	be de 54 40 00       	mov    $0x4054de,%esi
  401fef:	48 89 c7             	mov    %rax,%rdi
  401ff2:	e8 09 f6 ff ff       	callq  401600 <_ZNSt7__cxx1112basic_stringIcSt11char_traitsIcESaIcEEC1EPKcRKS3_@plt>
  401ff7:	48 8d 45 c0          	lea    -0x40(%rbp),%rax
  401ffb:	48 89 c6             	mov    %rax,%rsi
  401ffe:	bf e0 73 60 00       	mov    $0x6073e0,%edi
  402003:	e8 b6 27 00 00       	callq  4047be <_ZNSt6vectorINSt7__cxx1112basic_stringIcSt11char_traitsIcESaIcEEESaIS5_EE9push_backEOS5_>
  402008:	48 8d 45 c0          	lea    -0x40(%rbp),%rax
  40200c:	48 89 c7             	mov    %rax,%rdi
  40200f:	e8 bc f4 ff ff       	callq  4014d0 <_ZNSt7__cxx1112basic_stringIcSt11char_traitsIcESaIcEED1Ev@plt>
  402014:	48 8d 45 bf          	lea    -0x41(%rbp),%rax
  402018:	48 89 c7             	mov    %rax,%rdi
  40201b:	e8 10 f5 ff ff       	callq  401530 <_ZNSaIcED1Ev@plt>
  402020:	48 8d 45 bf          	lea    -0x41(%rbp),%rax
  402024:	48 89 c7             	mov    %rax,%rdi
  402027:	e8 f4 f5 ff ff       	callq  401620 <_ZNSaIcEC1Ev@plt>
  40202c:	48 8d 55 bf          	lea    -0x41(%rbp),%rdx
  402030:	48 8d 45 c0          	lea    -0x40(%rbp),%rax
  402034:	be e6 54 40 00       	mov    $0x4054e6,%esi
  402039:	48 89 c7             	mov    %rax,%rdi
  40203c:	e8 bf f5 ff ff       	callq  401600 <_ZNSt7__cxx1112basic_stringIcSt11char_traitsIcESaIcEEC1EPKcRKS3_@plt>
  402041:	48 8d 45 c0          	lea    -0x40(%rbp),%rax
  402045:	48 89 c6             	mov    %rax,%rsi
  402048:	bf e0 73 60 00       	mov    $0x6073e0,%edi
  40204d:	e8 6c 27 00 00       	callq  4047be <_ZNSt6vectorINSt7__cxx1112basic_stringIcSt11char_traitsIcESaIcEEESaIS5_EE9push_backEOS5_>
  402052:	48 8d 45 c0          	lea    -0x40(%rbp),%rax
  402056:	48 89 c7             	mov    %rax,%rdi
  402059:	e8 72 f4 ff ff       	callq  4014d0 <_ZNSt7__cxx1112basic_stringIcSt11char_traitsIcESaIcEED1Ev@plt>
  40205e:	48 8d 45 bf          	lea    -0x41(%rbp),%rax
  402062:	48 89 c7             	mov    %rax,%rdi
  402065:	e8 c6 f4 ff ff       	callq  401530 <_ZNSaIcED1Ev@plt>
  40206a:	48 8d 45 bf          	lea    -0x41(%rbp),%rax
  40206e:	48 89 c7             	mov    %rax,%rdi
  402071:	e8 aa f5 ff ff       	callq  401620 <_ZNSaIcEC1Ev@plt>
  402076:	48 8d 55 bf          	lea    -0x41(%rbp),%rdx
  40207a:	48 8d 45 c0          	lea    -0x40(%rbp),%rax
  40207e:	be ee 54 40 00       	mov    $0x4054ee,%esi
  402083:	48 89 c7             	mov    %rax,%rdi
  402086:	e8 75 f5 ff ff       	callq  401600 <_ZNSt7__cxx1112basic_stringIcSt11char_traitsIcESaIcEEC1EPKcRKS3_@plt>
  40208b:	48 8d 45 c0          	lea    -0x40(%rbp),%rax
  40208f:	48 89 c6             	mov    %rax,%rsi
  402092:	bf e0 73 60 00       	mov    $0x6073e0,%edi
  402097:	e8 22 27 00 00       	callq  4047be <_ZNSt6vectorINSt7__cxx1112basic_stringIcSt11char_traitsIcESaIcEEESaIS5_EE9push_backEOS5_>
  40209c:	48 8d 45 c0          	lea    -0x40(%rbp),%rax
  4020a0:	48 89 c7             	mov    %rax,%rdi
  4020a3:	e8 28 f4 ff ff       	callq  4014d0 <_ZNSt7__cxx1112basic_stringIcSt11char_traitsIcESaIcEED1Ev@plt>
  4020a8:	48 8d 45 bf          	lea    -0x41(%rbp),%rax
  4020ac:	48 89 c7             	mov    %rax,%rdi
  4020af:	e8 7c f4 ff ff       	callq  401530 <_ZNSaIcED1Ev@plt>
  4020b4:	48 8d 45 bf          	lea    -0x41(%rbp),%rax
  4020b8:	48 89 c7             	mov    %rax,%rdi
  4020bb:	e8 60 f5 ff ff       	callq  401620 <_ZNSaIcEC1Ev@plt>
  4020c0:	48 8d 55 bf          	lea    -0x41(%rbp),%rdx
  4020c4:	48 8d 45 c0          	lea    -0x40(%rbp),%rax
  4020c8:	be f6 54 40 00       	mov    $0x4054f6,%esi
  4020cd:	48 89 c7             	mov    %rax,%rdi
  4020d0:	e8 2b f5 ff ff       	callq  401600 <_ZNSt7__cxx1112basic_stringIcSt11char_traitsIcESaIcEEC1EPKcRKS3_@plt>
  4020d5:	48 8d 45 c0          	lea    -0x40(%rbp),%rax
  4020d9:	48 89 c6             	mov    %rax,%rsi
  4020dc:	bf e0 73 60 00       	mov    $0x6073e0,%edi
  4020e1:	e8 d8 26 00 00       	callq  4047be <_ZNSt6vectorINSt7__cxx1112basic_stringIcSt11char_traitsIcESaIcEEESaIS5_EE9push_backEOS5_>
  4020e6:	48 8d 45 c0          	lea    -0x40(%rbp),%rax
  4020ea:	48 89 c7             	mov    %rax,%rdi
  4020ed:	e8 de f3 ff ff       	callq  4014d0 <_ZNSt7__cxx1112basic_stringIcSt11char_traitsIcESaIcEED1Ev@plt>
  4020f2:	48 8d 45 bf          	lea    -0x41(%rbp),%rax
  4020f6:	48 89 c7             	mov    %rax,%rdi
  4020f9:	e8 32 f4 ff ff       	callq  401530 <_ZNSaIcED1Ev@plt>
  4020fe:	48 8d 45 bf          	lea    -0x41(%rbp),%rax
  402102:	48 89 c7             	mov    %rax,%rdi
  402105:	e8 16 f5 ff ff       	callq  401620 <_ZNSaIcEC1Ev@plt>
  40210a:	48 8d 55 bf          	lea    -0x41(%rbp),%rdx
  40210e:	48 8d 45 c0          	lea    -0x40(%rbp),%rax
  402112:	be fe 54 40 00       	mov    $0x4054fe,%esi
  402117:	48 89 c7             	mov    %rax,%rdi
  40211a:	e8 e1 f4 ff ff       	callq  401600 <_ZNSt7__cxx1112basic_stringIcSt11char_traitsIcESaIcEEC1EPKcRKS3_@plt>
  40211f:	48 8d 45 c0          	lea    -0x40(%rbp),%rax
  402123:	48 89 c6             	mov    %rax,%rsi
  402126:	bf e0 73 60 00       	mov    $0x6073e0,%edi
  40212b:	e8 8e 26 00 00       	callq  4047be <_ZNSt6vectorINSt7__cxx1112basic_stringIcSt11char_traitsIcESaIcEEESaIS5_EE9push_backEOS5_>
  402130:	48 8d 45 c0          	lea    -0x40(%rbp),%rax
  402134:	48 89 c7             	mov    %rax,%rdi
  402137:	e8 94 f3 ff ff       	callq  4014d0 <_ZNSt7__cxx1112basic_stringIcSt11char_traitsIcESaIcEED1Ev@plt>
  40213c:	48 8d 45 bf          	lea    -0x41(%rbp),%rax
  402140:	48 89 c7             	mov    %rax,%rdi
  402143:	e8 e8 f3 ff ff       	callq  401530 <_ZNSaIcED1Ev@plt>
  402148:	48 8d 45 bf          	lea    -0x41(%rbp),%rax
  40214c:	48 89 c7             	mov    %rax,%rdi
  40214f:	e8 cc f4 ff ff       	callq  401620 <_ZNSaIcEC1Ev@plt>
  402154:	48 8d 55 bf          	lea    -0x41(%rbp),%rdx
  402158:	48 8d 45 c0          	lea    -0x40(%rbp),%rax
  40215c:	be 06 55 40 00       	mov    $0x405506,%esi
  402161:	48 89 c7             	mov    %rax,%rdi
  402164:	e8 97 f4 ff ff       	callq  401600 <_ZNSt7__cxx1112basic_stringIcSt11char_traitsIcESaIcEEC1EPKcRKS3_@plt>
  402169:	48 8d 45 c0          	lea    -0x40(%rbp),%rax
  40216d:	48 89 c6             	mov    %rax,%rsi
  402170:	bf e0 73 60 00       	mov    $0x6073e0,%edi
  402175:	e8 44 26 00 00       	callq  4047be <_ZNSt6vectorINSt7__cxx1112basic_stringIcSt11char_traitsIcESaIcEEESaIS5_EE9push_backEOS5_>
  40217a:	48 8d 45 c0          	lea    -0x40(%rbp),%rax
  40217e:	48 89 c7             	mov    %rax,%rdi
  402181:	e8 4a f3 ff ff       	callq  4014d0 <_ZNSt7__cxx1112basic_stringIcSt11char_traitsIcESaIcEED1Ev@plt>
  402186:	48 8d 45 bf          	lea    -0x41(%rbp),%rax
  40218a:	48 89 c7             	mov    %rax,%rdi
  40218d:	e8 9e f3 ff ff       	callq  401530 <_ZNSaIcED1Ev@plt>
  402192:	48 8d 45 bf          	lea    -0x41(%rbp),%rax
  402196:	48 89 c7             	mov    %rax,%rdi
  402199:	e8 82 f4 ff ff       	callq  401620 <_ZNSaIcEC1Ev@plt>
  40219e:	48 8d 55 bf          	lea    -0x41(%rbp),%rdx
  4021a2:	48 8d 45 c0          	lea    -0x40(%rbp),%rax
  4021a6:	be 0e 55 40 00       	mov    $0x40550e,%esi
  4021ab:	48 89 c7             	mov    %rax,%rdi
  4021ae:	e8 4d f4 ff ff       	callq  401600 <_ZNSt7__cxx1112basic_stringIcSt11char_traitsIcESaIcEEC1EPKcRKS3_@plt>
  4021b3:	48 8d 45 c0          	lea    -0x40(%rbp),%rax
  4021b7:	48 89 c6             	mov    %rax,%rsi
  4021ba:	bf e0 73 60 00       	mov    $0x6073e0,%edi
  4021bf:	e8 fa 25 00 00       	callq  4047be <_ZNSt6vectorINSt7__cxx1112basic_stringIcSt11char_traitsIcESaIcEEESaIS5_EE9push_backEOS5_>
  4021c4:	48 8d 45 c0          	lea    -0x40(%rbp),%rax
  4021c8:	48 89 c7             	mov    %rax,%rdi
  4021cb:	e8 00 f3 ff ff       	callq  4014d0 <_ZNSt7__cxx1112basic_stringIcSt11char_traitsIcESaIcEED1Ev@plt>
  4021d0:	48 8d 45 bf          	lea    -0x41(%rbp),%rax
  4021d4:	48 89 c7             	mov    %rax,%rdi
  4021d7:	e8 54 f3 ff ff       	callq  401530 <_ZNSaIcED1Ev@plt>
  4021dc:	48 8d 45 bf          	lea    -0x41(%rbp),%rax
  4021e0:	48 89 c7             	mov    %rax,%rdi
  4021e3:	e8 38 f4 ff ff       	callq  401620 <_ZNSaIcEC1Ev@plt>
  4021e8:	48 8d 55 bf          	lea    -0x41(%rbp),%rdx
  4021ec:	48 8d 45 c0          	lea    -0x40(%rbp),%rax
  4021f0:	be 16 55 40 00       	mov    $0x405516,%esi
  4021f5:	48 89 c7             	mov    %rax,%rdi
  4021f8:	e8 03 f4 ff ff       	callq  401600 <_ZNSt7__cxx1112basic_stringIcSt11char_traitsIcESaIcEEC1EPKcRKS3_@plt>
  4021fd:	48 8d 45 c0          	lea    -0x40(%rbp),%rax
  402201:	48 89 c6             	mov    %rax,%rsi
  402204:	bf e0 73 60 00       	mov    $0x6073e0,%edi
  402209:	e8 b0 25 00 00       	callq  4047be <_ZNSt6vectorINSt7__cxx1112basic_stringIcSt11char_traitsIcESaIcEEESaIS5_EE9push_backEOS5_>
  40220e:	48 8d 45 c0          	lea    -0x40(%rbp),%rax
  402212:	48 89 c7             	mov    %rax,%rdi
  402215:	e8 b6 f2 ff ff       	callq  4014d0 <_ZNSt7__cxx1112basic_stringIcSt11char_traitsIcESaIcEED1Ev@plt>
  40221a:	48 8d 45 bf          	lea    -0x41(%rbp),%rax
  40221e:	48 89 c7             	mov    %rax,%rdi
  402221:	e8 0a f3 ff ff       	callq  401530 <_ZNSaIcED1Ev@plt>
  402226:	48 8d 45 bf          	lea    -0x41(%rbp),%rax
  40222a:	48 89 c7             	mov    %rax,%rdi
  40222d:	e8 ee f3 ff ff       	callq  401620 <_ZNSaIcEC1Ev@plt>
  402232:	48 8d 55 bf          	lea    -0x41(%rbp),%rdx
  402236:	48 8d 45 c0          	lea    -0x40(%rbp),%rax
  40223a:	be 1e 55 40 00       	mov    $0x40551e,%esi
  40223f:	48 89 c7             	mov    %rax,%rdi
  402242:	e8 b9 f3 ff ff       	callq  401600 <_ZNSt7__cxx1112basic_stringIcSt11char_traitsIcESaIcEEC1EPKcRKS3_@plt>
  402247:	48 8d 45 c0          	lea    -0x40(%rbp),%rax
  40224b:	48 89 c6             	mov    %rax,%rsi
  40224e:	bf e0 73 60 00       	mov    $0x6073e0,%edi
  402253:	e8 66 25 00 00       	callq  4047be <_ZNSt6vectorINSt7__cxx1112basic_stringIcSt11char_traitsIcESaIcEEESaIS5_EE9push_backEOS5_>
  402258:	48 8d 45 c0          	lea    -0x40(%rbp),%rax
  40225c:	48 89 c7             	mov    %rax,%rdi
  40225f:	e8 6c f2 ff ff       	callq  4014d0 <_ZNSt7__cxx1112basic_stringIcSt11char_traitsIcESaIcEED1Ev@plt>
  402264:	48 8d 45 bf          	lea    -0x41(%rbp),%rax
  402268:	48 89 c7             	mov    %rax,%rdi
  40226b:	e8 c0 f2 ff ff       	callq  401530 <_ZNSaIcED1Ev@plt>
  402270:	48 8d 45 bf          	lea    -0x41(%rbp),%rax
  402274:	48 89 c7             	mov    %rax,%rdi
  402277:	e8 a4 f3 ff ff       	callq  401620 <_ZNSaIcEC1Ev@plt>
  40227c:	48 8d 55 bf          	lea    -0x41(%rbp),%rdx
  402280:	48 8d 45 c0          	lea    -0x40(%rbp),%rax
  402284:	be 26 55 40 00       	mov    $0x405526,%esi
  402289:	48 89 c7             	mov    %rax,%rdi
  40228c:	e8 6f f3 ff ff       	callq  401600 <_ZNSt7__cxx1112basic_stringIcSt11char_traitsIcESaIcEEC1EPKcRKS3_@plt>
  402291:	48 8d 45 c0          	lea    -0x40(%rbp),%rax
  402295:	48 89 c6             	mov    %rax,%rsi
  402298:	bf e0 73 60 00       	mov    $0x6073e0,%edi
  40229d:	e8 1c 25 00 00       	callq  4047be <_ZNSt6vectorINSt7__cxx1112basic_stringIcSt11char_traitsIcESaIcEEESaIS5_EE9push_backEOS5_>
  4022a2:	48 8d 45 c0          	lea    -0x40(%rbp),%rax
  4022a6:	48 89 c7             	mov    %rax,%rdi
  4022a9:	e8 22 f2 ff ff       	callq  4014d0 <_ZNSt7__cxx1112basic_stringIcSt11char_traitsIcESaIcEED1Ev@plt>
  4022ae:	48 8d 45 bf          	lea    -0x41(%rbp),%rax
  4022b2:	48 89 c7             	mov    %rax,%rdi
  4022b5:	e8 76 f2 ff ff       	callq  401530 <_ZNSaIcED1Ev@plt>
  4022ba:	48 8d 45 bf          	lea    -0x41(%rbp),%rax
  4022be:	48 89 c7             	mov    %rax,%rdi
  4022c1:	e8 5a f3 ff ff       	callq  401620 <_ZNSaIcEC1Ev@plt>
  4022c6:	48 8d 55 bf          	lea    -0x41(%rbp),%rdx
  4022ca:	48 8d 45 c0          	lea    -0x40(%rbp),%rax
  4022ce:	be 2e 55 40 00       	mov    $0x40552e,%esi
  4022d3:	48 89 c7             	mov    %rax,%rdi
  4022d6:	e8 25 f3 ff ff       	callq  401600 <_ZNSt7__cxx1112basic_stringIcSt11char_traitsIcESaIcEEC1EPKcRKS3_@plt>
  4022db:	48 8d 45 c0          	lea    -0x40(%rbp),%rax
  4022df:	48 89 c6             	mov    %rax,%rsi
  4022e2:	bf e0 73 60 00       	mov    $0x6073e0,%edi
  4022e7:	e8 d2 24 00 00       	callq  4047be <_ZNSt6vectorINSt7__cxx1112basic_stringIcSt11char_traitsIcESaIcEEESaIS5_EE9push_backEOS5_>
  4022ec:	48 8d 45 c0          	lea    -0x40(%rbp),%rax
  4022f0:	48 89 c7             	mov    %rax,%rdi
  4022f3:	e8 d8 f1 ff ff       	callq  4014d0 <_ZNSt7__cxx1112basic_stringIcSt11char_traitsIcESaIcEED1Ev@plt>
  4022f8:	48 8d 45 bf          	lea    -0x41(%rbp),%rax
  4022fc:	48 89 c7             	mov    %rax,%rdi
  4022ff:	e8 2c f2 ff ff       	callq  401530 <_ZNSaIcED1Ev@plt>
  402304:	48 8d 45 bf          	lea    -0x41(%rbp),%rax
  402308:	48 89 c7             	mov    %rax,%rdi
  40230b:	e8 10 f3 ff ff       	callq  401620 <_ZNSaIcEC1Ev@plt>
  402310:	48 8d 55 bf          	lea    -0x41(%rbp),%rdx
  402314:	48 8d 45 c0          	lea    -0x40(%rbp),%rax
  402318:	be 36 55 40 00       	mov    $0x405536,%esi
  40231d:	48 89 c7             	mov    %rax,%rdi
  402320:	e8 db f2 ff ff       	callq  401600 <_ZNSt7__cxx1112basic_stringIcSt11char_traitsIcESaIcEEC1EPKcRKS3_@plt>
  402325:	48 8d 45 c0          	lea    -0x40(%rbp),%rax
  402329:	48 89 c6             	mov    %rax,%rsi
  40232c:	bf e0 73 60 00       	mov    $0x6073e0,%edi
  402331:	e8 88 24 00 00       	callq  4047be <_ZNSt6vectorINSt7__cxx1112basic_stringIcSt11char_traitsIcESaIcEEESaIS5_EE9push_backEOS5_>
  402336:	48 8d 45 c0          	lea    -0x40(%rbp),%rax
  40233a:	48 89 c7             	mov    %rax,%rdi
  40233d:	e8 8e f1 ff ff       	callq  4014d0 <_ZNSt7__cxx1112basic_stringIcSt11char_traitsIcESaIcEED1Ev@plt>
  402342:	48 8d 45 bf          	lea    -0x41(%rbp),%rax
  402346:	48 89 c7             	mov    %rax,%rdi
  402349:	e8 e2 f1 ff ff       	callq  401530 <_ZNSaIcED1Ev@plt>
  40234e:	48 8d 45 bf          	lea    -0x41(%rbp),%rax
  402352:	48 89 c7             	mov    %rax,%rdi
  402355:	e8 c6 f2 ff ff       	callq  401620 <_ZNSaIcEC1Ev@plt>
  40235a:	48 8d 55 bf          	lea    -0x41(%rbp),%rdx
  40235e:	48 8d 45 c0          	lea    -0x40(%rbp),%rax
  402362:	be 3e 55 40 00       	mov    $0x40553e,%esi
  402367:	48 89 c7             	mov    %rax,%rdi
  40236a:	e8 91 f2 ff ff       	callq  401600 <_ZNSt7__cxx1112basic_stringIcSt11char_traitsIcESaIcEEC1EPKcRKS3_@plt>
  40236f:	48 8d 45 c0          	lea    -0x40(%rbp),%rax
  402373:	48 89 c6             	mov    %rax,%rsi
  402376:	bf e0 73 60 00       	mov    $0x6073e0,%edi
  40237b:	e8 3e 24 00 00       	callq  4047be <_ZNSt6vectorINSt7__cxx1112basic_stringIcSt11char_traitsIcESaIcEEESaIS5_EE9push_backEOS5_>
  402380:	48 8d 45 c0          	lea    -0x40(%rbp),%rax
  402384:	48 89 c7             	mov    %rax,%rdi
  402387:	e8 44 f1 ff ff       	callq  4014d0 <_ZNSt7__cxx1112basic_stringIcSt11char_traitsIcESaIcEED1Ev@plt>
  40238c:	48 8d 45 bf          	lea    -0x41(%rbp),%rax
  402390:	48 89 c7             	mov    %rax,%rdi
  402393:	e8 98 f1 ff ff       	callq  401530 <_ZNSaIcED1Ev@plt>
  402398:	48 8d 45 bf          	lea    -0x41(%rbp),%rax
  40239c:	48 89 c7             	mov    %rax,%rdi
  40239f:	e8 7c f2 ff ff       	callq  401620 <_ZNSaIcEC1Ev@plt>
  4023a4:	48 8d 55 bf          	lea    -0x41(%rbp),%rdx
  4023a8:	48 8d 45 c0          	lea    -0x40(%rbp),%rax
  4023ac:	be 46 55 40 00       	mov    $0x405546,%esi
  4023b1:	48 89 c7             	mov    %rax,%rdi
  4023b4:	e8 47 f2 ff ff       	callq  401600 <_ZNSt7__cxx1112basic_stringIcSt11char_traitsIcESaIcEEC1EPKcRKS3_@plt>
  4023b9:	48 8d 45 c0          	lea    -0x40(%rbp),%rax
  4023bd:	48 89 c6             	mov    %rax,%rsi
  4023c0:	bf e0 73 60 00       	mov    $0x6073e0,%edi
  4023c5:	e8 f4 23 00 00       	callq  4047be <_ZNSt6vectorINSt7__cxx1112basic_stringIcSt11char_traitsIcESaIcEEESaIS5_EE9push_backEOS5_>
  4023ca:	48 8d 45 c0          	lea    -0x40(%rbp),%rax
  4023ce:	48 89 c7             	mov    %rax,%rdi
  4023d1:	e8 fa f0 ff ff       	callq  4014d0 <_ZNSt7__cxx1112basic_stringIcSt11char_traitsIcESaIcEED1Ev@plt>
  4023d6:	48 8d 45 bf          	lea    -0x41(%rbp),%rax
  4023da:	48 89 c7             	mov    %rax,%rdi
  4023dd:	e8 4e f1 ff ff       	callq  401530 <_ZNSaIcED1Ev@plt>
  4023e2:	48 8d 45 bf          	lea    -0x41(%rbp),%rax
  4023e6:	48 89 c7             	mov    %rax,%rdi
  4023e9:	e8 32 f2 ff ff       	callq  401620 <_ZNSaIcEC1Ev@plt>
  4023ee:	48 8d 55 bf          	lea    -0x41(%rbp),%rdx
  4023f2:	48 8d 45 c0          	lea    -0x40(%rbp),%rax
  4023f6:	be 4e 55 40 00       	mov    $0x40554e,%esi
  4023fb:	48 89 c7             	mov    %rax,%rdi
  4023fe:	e8 fd f1 ff ff       	callq  401600 <_ZNSt7__cxx1112basic_stringIcSt11char_traitsIcESaIcEEC1EPKcRKS3_@plt>
  402403:	48 8d 45 c0          	lea    -0x40(%rbp),%rax
  402407:	48 89 c6             	mov    %rax,%rsi
  40240a:	bf e0 73 60 00       	mov    $0x6073e0,%edi
  40240f:	e8 aa 23 00 00       	callq  4047be <_ZNSt6vectorINSt7__cxx1112basic_stringIcSt11char_traitsIcESaIcEEESaIS5_EE9push_backEOS5_>
  402414:	48 8d 45 c0          	lea    -0x40(%rbp),%rax
  402418:	48 89 c7             	mov    %rax,%rdi
  40241b:	e8 b0 f0 ff ff       	callq  4014d0 <_ZNSt7__cxx1112basic_stringIcSt11char_traitsIcESaIcEED1Ev@plt>
  402420:	48 8d 45 bf          	lea    -0x41(%rbp),%rax
  402424:	48 89 c7             	mov    %rax,%rdi
  402427:	e8 04 f1 ff ff       	callq  401530 <_ZNSaIcED1Ev@plt>
  40242c:	48 8d 45 bf          	lea    -0x41(%rbp),%rax
  402430:	48 89 c7             	mov    %rax,%rdi
  402433:	e8 e8 f1 ff ff       	callq  401620 <_ZNSaIcEC1Ev@plt>
  402438:	48 8d 55 bf          	lea    -0x41(%rbp),%rdx
  40243c:	48 8d 45 c0          	lea    -0x40(%rbp),%rax
  402440:	be 56 55 40 00       	mov    $0x405556,%esi
  402445:	48 89 c7             	mov    %rax,%rdi
  402448:	e8 b3 f1 ff ff       	callq  401600 <_ZNSt7__cxx1112basic_stringIcSt11char_traitsIcESaIcEEC1EPKcRKS3_@plt>
  40244d:	48 8d 45 c0          	lea    -0x40(%rbp),%rax
  402451:	48 89 c6             	mov    %rax,%rsi
  402454:	bf e0 73 60 00       	mov    $0x6073e0,%edi
  402459:	e8 60 23 00 00       	callq  4047be <_ZNSt6vectorINSt7__cxx1112basic_stringIcSt11char_traitsIcESaIcEEESaIS5_EE9push_backEOS5_>
  40245e:	48 8d 45 c0          	lea    -0x40(%rbp),%rax
  402462:	48 89 c7             	mov    %rax,%rdi
  402465:	e8 66 f0 ff ff       	callq  4014d0 <_ZNSt7__cxx1112basic_stringIcSt11char_traitsIcESaIcEED1Ev@plt>
  40246a:	48 8d 45 bf          	lea    -0x41(%rbp),%rax
  40246e:	48 89 c7             	mov    %rax,%rdi
  402471:	e8 ba f0 ff ff       	callq  401530 <_ZNSaIcED1Ev@plt>
  402476:	48 8d 45 bf          	lea    -0x41(%rbp),%rax
  40247a:	48 89 c7             	mov    %rax,%rdi
  40247d:	e8 9e f1 ff ff       	callq  401620 <_ZNSaIcEC1Ev@plt>
  402482:	48 8d 55 bf          	lea    -0x41(%rbp),%rdx
  402486:	48 8d 45 c0          	lea    -0x40(%rbp),%rax
  40248a:	be 5e 55 40 00       	mov    $0x40555e,%esi
  40248f:	48 89 c7             	mov    %rax,%rdi
  402492:	e8 69 f1 ff ff       	callq  401600 <_ZNSt7__cxx1112basic_stringIcSt11char_traitsIcESaIcEEC1EPKcRKS3_@plt>
  402497:	48 8d 45 c0          	lea    -0x40(%rbp),%rax
  40249b:	48 89 c6             	mov    %rax,%rsi
  40249e:	bf e0 73 60 00       	mov    $0x6073e0,%edi
  4024a3:	e8 16 23 00 00       	callq  4047be <_ZNSt6vectorINSt7__cxx1112basic_stringIcSt11char_traitsIcESaIcEEESaIS5_EE9push_backEOS5_>
  4024a8:	48 8d 45 c0          	lea    -0x40(%rbp),%rax
  4024ac:	48 89 c7             	mov    %rax,%rdi
  4024af:	e8 1c f0 ff ff       	callq  4014d0 <_ZNSt7__cxx1112basic_stringIcSt11char_traitsIcESaIcEED1Ev@plt>
  4024b4:	48 8d 45 bf          	lea    -0x41(%rbp),%rax
  4024b8:	48 89 c7             	mov    %rax,%rdi
  4024bb:	e8 70 f0 ff ff       	callq  401530 <_ZNSaIcED1Ev@plt>
  4024c0:	48 8d 45 bf          	lea    -0x41(%rbp),%rax
  4024c4:	48 89 c7             	mov    %rax,%rdi
  4024c7:	e8 54 f1 ff ff       	callq  401620 <_ZNSaIcEC1Ev@plt>
  4024cc:	48 8d 55 bf          	lea    -0x41(%rbp),%rdx
  4024d0:	48 8d 45 c0          	lea    -0x40(%rbp),%rax
  4024d4:	be 66 55 40 00       	mov    $0x405566,%esi
  4024d9:	48 89 c7             	mov    %rax,%rdi
  4024dc:	e8 1f f1 ff ff       	callq  401600 <_ZNSt7__cxx1112basic_stringIcSt11char_traitsIcESaIcEEC1EPKcRKS3_@plt>
  4024e1:	48 8d 45 c0          	lea    -0x40(%rbp),%rax
  4024e5:	48 89 c6             	mov    %rax,%rsi
  4024e8:	bf e0 73 60 00       	mov    $0x6073e0,%edi
  4024ed:	e8 cc 22 00 00       	callq  4047be <_ZNSt6vectorINSt7__cxx1112basic_stringIcSt11char_traitsIcESaIcEEESaIS5_EE9push_backEOS5_>
  4024f2:	48 8d 45 c0          	lea    -0x40(%rbp),%rax
  4024f6:	48 89 c7             	mov    %rax,%rdi
  4024f9:	e8 d2 ef ff ff       	callq  4014d0 <_ZNSt7__cxx1112basic_stringIcSt11char_traitsIcESaIcEED1Ev@plt>
  4024fe:	48 8d 45 bf          	lea    -0x41(%rbp),%rax
  402502:	48 89 c7             	mov    %rax,%rdi
  402505:	e8 26 f0 ff ff       	callq  401530 <_ZNSaIcED1Ev@plt>
  40250a:	48 8d 45 bf          	lea    -0x41(%rbp),%rax
  40250e:	48 89 c7             	mov    %rax,%rdi
  402511:	e8 0a f1 ff ff       	callq  401620 <_ZNSaIcEC1Ev@plt>
  402516:	48 8d 55 bf          	lea    -0x41(%rbp),%rdx
  40251a:	48 8d 45 c0          	lea    -0x40(%rbp),%rax
  40251e:	be 6e 55 40 00       	mov    $0x40556e,%esi
  402523:	48 89 c7             	mov    %rax,%rdi
  402526:	e8 d5 f0 ff ff       	callq  401600 <_ZNSt7__cxx1112basic_stringIcSt11char_traitsIcESaIcEEC1EPKcRKS3_@plt>
  40252b:	48 8d 45 c0          	lea    -0x40(%rbp),%rax
  40252f:	48 89 c6             	mov    %rax,%rsi
  402532:	bf e0 73 60 00       	mov    $0x6073e0,%edi
  402537:	e8 82 22 00 00       	callq  4047be <_ZNSt6vectorINSt7__cxx1112basic_stringIcSt11char_traitsIcESaIcEEESaIS5_EE9push_backEOS5_>
  40253c:	48 8d 45 c0          	lea    -0x40(%rbp),%rax
  402540:	48 89 c7             	mov    %rax,%rdi
  402543:	e8 88 ef ff ff       	callq  4014d0 <_ZNSt7__cxx1112basic_stringIcSt11char_traitsIcESaIcEED1Ev@plt>
  402548:	48 8d 45 bf          	lea    -0x41(%rbp),%rax
  40254c:	48 89 c7             	mov    %rax,%rdi
  40254f:	e8 dc ef ff ff       	callq  401530 <_ZNSaIcED1Ev@plt>
  402554:	48 8d 45 bf          	lea    -0x41(%rbp),%rax
  402558:	48 89 c7             	mov    %rax,%rdi
  40255b:	e8 c0 f0 ff ff       	callq  401620 <_ZNSaIcEC1Ev@plt>
  402560:	48 8d 55 bf          	lea    -0x41(%rbp),%rdx
  402564:	48 8d 45 c0          	lea    -0x40(%rbp),%rax
  402568:	be 76 55 40 00       	mov    $0x405576,%esi
  40256d:	48 89 c7             	mov    %rax,%rdi
  402570:	e8 8b f0 ff ff       	callq  401600 <_ZNSt7__cxx1112basic_stringIcSt11char_traitsIcESaIcEEC1EPKcRKS3_@plt>
  402575:	48 8d 45 c0          	lea    -0x40(%rbp),%rax
  402579:	48 89 c6             	mov    %rax,%rsi
  40257c:	bf e0 73 60 00       	mov    $0x6073e0,%edi
  402581:	e8 38 22 00 00       	callq  4047be <_ZNSt6vectorINSt7__cxx1112basic_stringIcSt11char_traitsIcESaIcEEESaIS5_EE9push_backEOS5_>
  402586:	48 8d 45 c0          	lea    -0x40(%rbp),%rax
  40258a:	48 89 c7             	mov    %rax,%rdi
  40258d:	e8 3e ef ff ff       	callq  4014d0 <_ZNSt7__cxx1112basic_stringIcSt11char_traitsIcESaIcEED1Ev@plt>
  402592:	48 8d 45 bf          	lea    -0x41(%rbp),%rax
  402596:	48 89 c7             	mov    %rax,%rdi
  402599:	e8 92 ef ff ff       	callq  401530 <_ZNSaIcED1Ev@plt>
  40259e:	48 8d 45 bf          	lea    -0x41(%rbp),%rax
  4025a2:	48 89 c7             	mov    %rax,%rdi
  4025a5:	e8 76 f0 ff ff       	callq  401620 <_ZNSaIcEC1Ev@plt>
  4025aa:	48 8d 55 bf          	lea    -0x41(%rbp),%rdx
  4025ae:	48 8d 45 c0          	lea    -0x40(%rbp),%rax
  4025b2:	be 7e 55 40 00       	mov    $0x40557e,%esi
  4025b7:	48 89 c7             	mov    %rax,%rdi
  4025ba:	e8 41 f0 ff ff       	callq  401600 <_ZNSt7__cxx1112basic_stringIcSt11char_traitsIcESaIcEEC1EPKcRKS3_@plt>
  4025bf:	48 8d 45 c0          	lea    -0x40(%rbp),%rax
  4025c3:	48 89 c6             	mov    %rax,%rsi
  4025c6:	bf e0 73 60 00       	mov    $0x6073e0,%edi
  4025cb:	e8 ee 21 00 00       	callq  4047be <_ZNSt6vectorINSt7__cxx1112basic_stringIcSt11char_traitsIcESaIcEEESaIS5_EE9push_backEOS5_>
  4025d0:	48 8d 45 c0          	lea    -0x40(%rbp),%rax
  4025d4:	48 89 c7             	mov    %rax,%rdi
  4025d7:	e8 f4 ee ff ff       	callq  4014d0 <_ZNSt7__cxx1112basic_stringIcSt11char_traitsIcESaIcEED1Ev@plt>
  4025dc:	48 8d 45 bf          	lea    -0x41(%rbp),%rax
  4025e0:	48 89 c7             	mov    %rax,%rdi
  4025e3:	e8 48 ef ff ff       	callq  401530 <_ZNSaIcED1Ev@plt>
  4025e8:	48 8d 45 bf          	lea    -0x41(%rbp),%rax
  4025ec:	48 89 c7             	mov    %rax,%rdi
  4025ef:	e8 2c f0 ff ff       	callq  401620 <_ZNSaIcEC1Ev@plt>
  4025f4:	48 8d 55 bf          	lea    -0x41(%rbp),%rdx
  4025f8:	48 8d 45 c0          	lea    -0x40(%rbp),%rax
  4025fc:	be 86 55 40 00       	mov    $0x405586,%esi
  402601:	48 89 c7             	mov    %rax,%rdi
  402604:	e8 f7 ef ff ff       	callq  401600 <_ZNSt7__cxx1112basic_stringIcSt11char_traitsIcESaIcEEC1EPKcRKS3_@plt>
  402609:	48 8d 45 c0          	lea    -0x40(%rbp),%rax
  40260d:	48 89 c6             	mov    %rax,%rsi
  402610:	bf e0 73 60 00       	mov    $0x6073e0,%edi
  402615:	e8 a4 21 00 00       	callq  4047be <_ZNSt6vectorINSt7__cxx1112basic_stringIcSt11char_traitsIcESaIcEEESaIS5_EE9push_backEOS5_>
  40261a:	48 8d 45 c0          	lea    -0x40(%rbp),%rax
  40261e:	48 89 c7             	mov    %rax,%rdi
  402621:	e8 aa ee ff ff       	callq  4014d0 <_ZNSt7__cxx1112basic_stringIcSt11char_traitsIcESaIcEED1Ev@plt>
  402626:	48 8d 45 bf          	lea    -0x41(%rbp),%rax
  40262a:	48 89 c7             	mov    %rax,%rdi
  40262d:	e8 fe ee ff ff       	callq  401530 <_ZNSaIcED1Ev@plt>
  402632:	48 8d 45 bf          	lea    -0x41(%rbp),%rax
  402636:	48 89 c7             	mov    %rax,%rdi
  402639:	e8 e2 ef ff ff       	callq  401620 <_ZNSaIcEC1Ev@plt>
  40263e:	48 8d 55 bf          	lea    -0x41(%rbp),%rdx
  402642:	48 8d 45 c0          	lea    -0x40(%rbp),%rax
  402646:	be 8e 55 40 00       	mov    $0x40558e,%esi
  40264b:	48 89 c7             	mov    %rax,%rdi
  40264e:	e8 ad ef ff ff       	callq  401600 <_ZNSt7__cxx1112basic_stringIcSt11char_traitsIcESaIcEEC1EPKcRKS3_@plt>
  402653:	48 8d 45 c0          	lea    -0x40(%rbp),%rax
  402657:	48 89 c6             	mov    %rax,%rsi
  40265a:	bf e0 73 60 00       	mov    $0x6073e0,%edi
  40265f:	e8 5a 21 00 00       	callq  4047be <_ZNSt6vectorINSt7__cxx1112basic_stringIcSt11char_traitsIcESaIcEEESaIS5_EE9push_backEOS5_>
  402664:	48 8d 45 c0          	lea    -0x40(%rbp),%rax
  402668:	48 89 c7             	mov    %rax,%rdi
  40266b:	e8 60 ee ff ff       	callq  4014d0 <_ZNSt7__cxx1112basic_stringIcSt11char_traitsIcESaIcEED1Ev@plt>
  402670:	48 8d 45 bf          	lea    -0x41(%rbp),%rax
  402674:	48 89 c7             	mov    %rax,%rdi
  402677:	e8 b4 ee ff ff       	callq  401530 <_ZNSaIcED1Ev@plt>
  40267c:	48 8d 45 bf          	lea    -0x41(%rbp),%rax
  402680:	48 89 c7             	mov    %rax,%rdi
  402683:	e8 98 ef ff ff       	callq  401620 <_ZNSaIcEC1Ev@plt>
  402688:	48 8d 55 bf          	lea    -0x41(%rbp),%rdx
  40268c:	48 8d 45 c0          	lea    -0x40(%rbp),%rax
  402690:	be 96 55 40 00       	mov    $0x405596,%esi
  402695:	48 89 c7             	mov    %rax,%rdi
  402698:	e8 63 ef ff ff       	callq  401600 <_ZNSt7__cxx1112basic_stringIcSt11char_traitsIcESaIcEEC1EPKcRKS3_@plt>
  40269d:	48 8d 45 c0          	lea    -0x40(%rbp),%rax
  4026a1:	48 89 c6             	mov    %rax,%rsi
  4026a4:	bf e0 73 60 00       	mov    $0x6073e0,%edi
  4026a9:	e8 10 21 00 00       	callq  4047be <_ZNSt6vectorINSt7__cxx1112basic_stringIcSt11char_traitsIcESaIcEEESaIS5_EE9push_backEOS5_>
  4026ae:	48 8d 45 c0          	lea    -0x40(%rbp),%rax
  4026b2:	48 89 c7             	mov    %rax,%rdi
  4026b5:	e8 16 ee ff ff       	callq  4014d0 <_ZNSt7__cxx1112basic_stringIcSt11char_traitsIcESaIcEED1Ev@plt>
  4026ba:	48 8d 45 bf          	lea    -0x41(%rbp),%rax
  4026be:	48 89 c7             	mov    %rax,%rdi
  4026c1:	e8 6a ee ff ff       	callq  401530 <_ZNSaIcED1Ev@plt>
  4026c6:	48 8d 45 bf          	lea    -0x41(%rbp),%rax
  4026ca:	48 89 c7             	mov    %rax,%rdi
  4026cd:	e8 4e ef ff ff       	callq  401620 <_ZNSaIcEC1Ev@plt>
  4026d2:	48 8d 55 bf          	lea    -0x41(%rbp),%rdx
  4026d6:	48 8d 45 c0          	lea    -0x40(%rbp),%rax
  4026da:	be 9e 55 40 00       	mov    $0x40559e,%esi
  4026df:	48 89 c7             	mov    %rax,%rdi
  4026e2:	e8 19 ef ff ff       	callq  401600 <_ZNSt7__cxx1112basic_stringIcSt11char_traitsIcESaIcEEC1EPKcRKS3_@plt>
  4026e7:	48 8d 45 c0          	lea    -0x40(%rbp),%rax
  4026eb:	48 89 c6             	mov    %rax,%rsi
  4026ee:	bf e0 73 60 00       	mov    $0x6073e0,%edi
  4026f3:	e8 c6 20 00 00       	callq  4047be <_ZNSt6vectorINSt7__cxx1112basic_stringIcSt11char_traitsIcESaIcEEESaIS5_EE9push_backEOS5_>
  4026f8:	48 8d 45 c0          	lea    -0x40(%rbp),%rax
  4026fc:	48 89 c7             	mov    %rax,%rdi
  4026ff:	e8 cc ed ff ff       	callq  4014d0 <_ZNSt7__cxx1112basic_stringIcSt11char_traitsIcESaIcEED1Ev@plt>
  402704:	48 8d 45 bf          	lea    -0x41(%rbp),%rax
  402708:	48 89 c7             	mov    %rax,%rdi
  40270b:	e8 20 ee ff ff       	callq  401530 <_ZNSaIcED1Ev@plt>
  402710:	48 8d 45 bf          	lea    -0x41(%rbp),%rax
  402714:	48 89 c7             	mov    %rax,%rdi
  402717:	e8 04 ef ff ff       	callq  401620 <_ZNSaIcEC1Ev@plt>
  40271c:	48 8d 55 bf          	lea    -0x41(%rbp),%rdx
  402720:	48 8d 45 c0          	lea    -0x40(%rbp),%rax
  402724:	be a6 55 40 00       	mov    $0x4055a6,%esi
  402729:	48 89 c7             	mov    %rax,%rdi
  40272c:	e8 cf ee ff ff       	callq  401600 <_ZNSt7__cxx1112basic_stringIcSt11char_traitsIcESaIcEEC1EPKcRKS3_@plt>
  402731:	48 8d 45 c0          	lea    -0x40(%rbp),%rax
  402735:	48 89 c6             	mov    %rax,%rsi
  402738:	bf e0 73 60 00       	mov    $0x6073e0,%edi
  40273d:	e8 7c 20 00 00       	callq  4047be <_ZNSt6vectorINSt7__cxx1112basic_stringIcSt11char_traitsIcESaIcEEESaIS5_EE9push_backEOS5_>
  402742:	48 8d 45 c0          	lea    -0x40(%rbp),%rax
  402746:	48 89 c7             	mov    %rax,%rdi
  402749:	e8 82 ed ff ff       	callq  4014d0 <_ZNSt7__cxx1112basic_stringIcSt11char_traitsIcESaIcEED1Ev@plt>
  40274e:	48 8d 45 bf          	lea    -0x41(%rbp),%rax
  402752:	48 89 c7             	mov    %rax,%rdi
  402755:	e8 d6 ed ff ff       	callq  401530 <_ZNSaIcED1Ev@plt>
  40275a:	48 8d 45 bf          	lea    -0x41(%rbp),%rax
  40275e:	48 89 c7             	mov    %rax,%rdi
  402761:	e8 ba ee ff ff       	callq  401620 <_ZNSaIcEC1Ev@plt>
  402766:	48 8d 55 bf          	lea    -0x41(%rbp),%rdx
  40276a:	48 8d 45 c0          	lea    -0x40(%rbp),%rax
  40276e:	be ae 55 40 00       	mov    $0x4055ae,%esi
  402773:	48 89 c7             	mov    %rax,%rdi
  402776:	e8 85 ee ff ff       	callq  401600 <_ZNSt7__cxx1112basic_stringIcSt11char_traitsIcESaIcEEC1EPKcRKS3_@plt>
  40277b:	48 8d 45 c0          	lea    -0x40(%rbp),%rax
  40277f:	48 89 c6             	mov    %rax,%rsi
  402782:	bf e0 73 60 00       	mov    $0x6073e0,%edi
  402787:	e8 32 20 00 00       	callq  4047be <_ZNSt6vectorINSt7__cxx1112basic_stringIcSt11char_traitsIcESaIcEEESaIS5_EE9push_backEOS5_>
  40278c:	48 8d 45 c0          	lea    -0x40(%rbp),%rax
  402790:	48 89 c7             	mov    %rax,%rdi
  402793:	e8 38 ed ff ff       	callq  4014d0 <_ZNSt7__cxx1112basic_stringIcSt11char_traitsIcESaIcEED1Ev@plt>
  402798:	48 8d 45 bf          	lea    -0x41(%rbp),%rax
  40279c:	48 89 c7             	mov    %rax,%rdi
  40279f:	e8 8c ed ff ff       	callq  401530 <_ZNSaIcED1Ev@plt>
  4027a4:	48 8d 45 bf          	lea    -0x41(%rbp),%rax
  4027a8:	48 89 c7             	mov    %rax,%rdi
  4027ab:	e8 70 ee ff ff       	callq  401620 <_ZNSaIcEC1Ev@plt>
  4027b0:	48 8d 55 bf          	lea    -0x41(%rbp),%rdx
  4027b4:	48 8d 45 c0          	lea    -0x40(%rbp),%rax
  4027b8:	be b6 55 40 00       	mov    $0x4055b6,%esi
  4027bd:	48 89 c7             	mov    %rax,%rdi
  4027c0:	e8 3b ee ff ff       	callq  401600 <_ZNSt7__cxx1112basic_stringIcSt11char_traitsIcESaIcEEC1EPKcRKS3_@plt>
  4027c5:	48 8d 45 c0          	lea    -0x40(%rbp),%rax
  4027c9:	48 89 c6             	mov    %rax,%rsi
  4027cc:	bf e0 73 60 00       	mov    $0x6073e0,%edi
  4027d1:	e8 e8 1f 00 00       	callq  4047be <_ZNSt6vectorINSt7__cxx1112basic_stringIcSt11char_traitsIcESaIcEEESaIS5_EE9push_backEOS5_>
  4027d6:	48 8d 45 c0          	lea    -0x40(%rbp),%rax
  4027da:	48 89 c7             	mov    %rax,%rdi
  4027dd:	e8 ee ec ff ff       	callq  4014d0 <_ZNSt7__cxx1112basic_stringIcSt11char_traitsIcESaIcEED1Ev@plt>
  4027e2:	48 8d 45 bf          	lea    -0x41(%rbp),%rax
  4027e6:	48 89 c7             	mov    %rax,%rdi
  4027e9:	e8 42 ed ff ff       	callq  401530 <_ZNSaIcED1Ev@plt>
  4027ee:	48 8d 45 bf          	lea    -0x41(%rbp),%rax
  4027f2:	48 89 c7             	mov    %rax,%rdi
  4027f5:	e8 26 ee ff ff       	callq  401620 <_ZNSaIcEC1Ev@plt>
  4027fa:	48 8d 55 bf          	lea    -0x41(%rbp),%rdx
  4027fe:	48 8d 45 c0          	lea    -0x40(%rbp),%rax
  402802:	be be 55 40 00       	mov    $0x4055be,%esi
  402807:	48 89 c7             	mov    %rax,%rdi
  40280a:	e8 f1 ed ff ff       	callq  401600 <_ZNSt7__cxx1112basic_stringIcSt11char_traitsIcESaIcEEC1EPKcRKS3_@plt>
  40280f:	48 8d 45 c0          	lea    -0x40(%rbp),%rax
  402813:	48 89 c6             	mov    %rax,%rsi
  402816:	bf e0 73 60 00       	mov    $0x6073e0,%edi
  40281b:	e8 9e 1f 00 00       	callq  4047be <_ZNSt6vectorINSt7__cxx1112basic_stringIcSt11char_traitsIcESaIcEEESaIS5_EE9push_backEOS5_>
  402820:	48 8d 45 c0          	lea    -0x40(%rbp),%rax
  402824:	48 89 c7             	mov    %rax,%rdi
  402827:	e8 a4 ec ff ff       	callq  4014d0 <_ZNSt7__cxx1112basic_stringIcSt11char_traitsIcESaIcEED1Ev@plt>
  40282c:	48 8d 45 bf          	lea    -0x41(%rbp),%rax
  402830:	48 89 c7             	mov    %rax,%rdi
  402833:	e8 f8 ec ff ff       	callq  401530 <_ZNSaIcED1Ev@plt>
  402838:	48 8d 45 bf          	lea    -0x41(%rbp),%rax
  40283c:	48 89 c7             	mov    %rax,%rdi
  40283f:	e8 dc ed ff ff       	callq  401620 <_ZNSaIcEC1Ev@plt>
  402844:	48 8d 55 bf          	lea    -0x41(%rbp),%rdx
  402848:	48 8d 45 c0          	lea    -0x40(%rbp),%rax
  40284c:	be c6 55 40 00       	mov    $0x4055c6,%esi
  402851:	48 89 c7             	mov    %rax,%rdi
  402854:	e8 a7 ed ff ff       	callq  401600 <_ZNSt7__cxx1112basic_stringIcSt11char_traitsIcESaIcEEC1EPKcRKS3_@plt>
  402859:	48 8d 45 c0          	lea    -0x40(%rbp),%rax
  40285d:	48 89 c6             	mov    %rax,%rsi
  402860:	bf e0 73 60 00       	mov    $0x6073e0,%edi
  402865:	e8 54 1f 00 00       	callq  4047be <_ZNSt6vectorINSt7__cxx1112basic_stringIcSt11char_traitsIcESaIcEEESaIS5_EE9push_backEOS5_>
  40286a:	48 8d 45 c0          	lea    -0x40(%rbp),%rax
  40286e:	48 89 c7             	mov    %rax,%rdi
  402871:	e8 5a ec ff ff       	callq  4014d0 <_ZNSt7__cxx1112basic_stringIcSt11char_traitsIcESaIcEED1Ev@plt>
  402876:	48 8d 45 bf          	lea    -0x41(%rbp),%rax
  40287a:	48 89 c7             	mov    %rax,%rdi
  40287d:	e8 ae ec ff ff       	callq  401530 <_ZNSaIcED1Ev@plt>
  402882:	48 8d 45 bf          	lea    -0x41(%rbp),%rax
  402886:	48 89 c7             	mov    %rax,%rdi
  402889:	e8 92 ed ff ff       	callq  401620 <_ZNSaIcEC1Ev@plt>
  40288e:	48 8d 55 bf          	lea    -0x41(%rbp),%rdx
  402892:	48 8d 45 c0          	lea    -0x40(%rbp),%rax
  402896:	be ce 55 40 00       	mov    $0x4055ce,%esi
  40289b:	48 89 c7             	mov    %rax,%rdi
  40289e:	e8 5d ed ff ff       	callq  401600 <_ZNSt7__cxx1112basic_stringIcSt11char_traitsIcESaIcEEC1EPKcRKS3_@plt>
  4028a3:	48 8d 45 c0          	lea    -0x40(%rbp),%rax
  4028a7:	48 89 c6             	mov    %rax,%rsi
  4028aa:	bf e0 73 60 00       	mov    $0x6073e0,%edi
  4028af:	e8 0a 1f 00 00       	callq  4047be <_ZNSt6vectorINSt7__cxx1112basic_stringIcSt11char_traitsIcESaIcEEESaIS5_EE9push_backEOS5_>
  4028b4:	48 8d 45 c0          	lea    -0x40(%rbp),%rax
  4028b8:	48 89 c7             	mov    %rax,%rdi
  4028bb:	e8 10 ec ff ff       	callq  4014d0 <_ZNSt7__cxx1112basic_stringIcSt11char_traitsIcESaIcEED1Ev@plt>
  4028c0:	48 8d 45 bf          	lea    -0x41(%rbp),%rax
  4028c4:	48 89 c7             	mov    %rax,%rdi
  4028c7:	e8 64 ec ff ff       	callq  401530 <_ZNSaIcED1Ev@plt>
  4028cc:	48 8d 45 bf          	lea    -0x41(%rbp),%rax
  4028d0:	48 89 c7             	mov    %rax,%rdi
  4028d3:	e8 48 ed ff ff       	callq  401620 <_ZNSaIcEC1Ev@plt>
  4028d8:	48 8d 55 bf          	lea    -0x41(%rbp),%rdx
  4028dc:	48 8d 45 c0          	lea    -0x40(%rbp),%rax
  4028e0:	be d6 55 40 00       	mov    $0x4055d6,%esi
  4028e5:	48 89 c7             	mov    %rax,%rdi
  4028e8:	e8 13 ed ff ff       	callq  401600 <_ZNSt7__cxx1112basic_stringIcSt11char_traitsIcESaIcEEC1EPKcRKS3_@plt>
  4028ed:	48 8d 45 c0          	lea    -0x40(%rbp),%rax
  4028f1:	48 89 c6             	mov    %rax,%rsi
  4028f4:	bf e0 73 60 00       	mov    $0x6073e0,%edi
  4028f9:	e8 c0 1e 00 00       	callq  4047be <_ZNSt6vectorINSt7__cxx1112basic_stringIcSt11char_traitsIcESaIcEEESaIS5_EE9push_backEOS5_>
  4028fe:	48 8d 45 c0          	lea    -0x40(%rbp),%rax
  402902:	48 89 c7             	mov    %rax,%rdi
  402905:	e8 c6 eb ff ff       	callq  4014d0 <_ZNSt7__cxx1112basic_stringIcSt11char_traitsIcESaIcEED1Ev@plt>
  40290a:	48 8d 45 bf          	lea    -0x41(%rbp),%rax
  40290e:	48 89 c7             	mov    %rax,%rdi
  402911:	e8 1a ec ff ff       	callq  401530 <_ZNSaIcED1Ev@plt>
  402916:	48 8d 45 bf          	lea    -0x41(%rbp),%rax
  40291a:	48 89 c7             	mov    %rax,%rdi
  40291d:	e8 fe ec ff ff       	callq  401620 <_ZNSaIcEC1Ev@plt>
  402922:	48 8d 55 bf          	lea    -0x41(%rbp),%rdx
  402926:	48 8d 45 c0          	lea    -0x40(%rbp),%rax
  40292a:	be de 55 40 00       	mov    $0x4055de,%esi
  40292f:	48 89 c7             	mov    %rax,%rdi
  402932:	e8 c9 ec ff ff       	callq  401600 <_ZNSt7__cxx1112basic_stringIcSt11char_traitsIcESaIcEEC1EPKcRKS3_@plt>
  402937:	48 8d 45 c0          	lea    -0x40(%rbp),%rax
  40293b:	48 89 c6             	mov    %rax,%rsi
  40293e:	bf e0 73 60 00       	mov    $0x6073e0,%edi
  402943:	e8 76 1e 00 00       	callq  4047be <_ZNSt6vectorINSt7__cxx1112basic_stringIcSt11char_traitsIcESaIcEEESaIS5_EE9push_backEOS5_>
  402948:	48 8d 45 c0          	lea    -0x40(%rbp),%rax
  40294c:	48 89 c7             	mov    %rax,%rdi
  40294f:	e8 7c eb ff ff       	callq  4014d0 <_ZNSt7__cxx1112basic_stringIcSt11char_traitsIcESaIcEED1Ev@plt>
  402954:	48 8d 45 bf          	lea    -0x41(%rbp),%rax
  402958:	48 89 c7             	mov    %rax,%rdi
  40295b:	e8 d0 eb ff ff       	callq  401530 <_ZNSaIcED1Ev@plt>
  402960:	48 8d 45 bf          	lea    -0x41(%rbp),%rax
  402964:	48 89 c7             	mov    %rax,%rdi
  402967:	e8 b4 ec ff ff       	callq  401620 <_ZNSaIcEC1Ev@plt>
  40296c:	48 8d 55 bf          	lea    -0x41(%rbp),%rdx
  402970:	48 8d 45 c0          	lea    -0x40(%rbp),%rax
  402974:	be e6 55 40 00       	mov    $0x4055e6,%esi
  402979:	48 89 c7             	mov    %rax,%rdi
  40297c:	e8 7f ec ff ff       	callq  401600 <_ZNSt7__cxx1112basic_stringIcSt11char_traitsIcESaIcEEC1EPKcRKS3_@plt>
  402981:	48 8d 45 c0          	lea    -0x40(%rbp),%rax
  402985:	48 89 c6             	mov    %rax,%rsi
  402988:	bf e0 73 60 00       	mov    $0x6073e0,%edi
  40298d:	e8 2c 1e 00 00       	callq  4047be <_ZNSt6vectorINSt7__cxx1112basic_stringIcSt11char_traitsIcESaIcEEESaIS5_EE9push_backEOS5_>
  402992:	48 8d 45 c0          	lea    -0x40(%rbp),%rax
  402996:	48 89 c7             	mov    %rax,%rdi
  402999:	e8 32 eb ff ff       	callq  4014d0 <_ZNSt7__cxx1112basic_stringIcSt11char_traitsIcESaIcEED1Ev@plt>
  40299e:	48 8d 45 bf          	lea    -0x41(%rbp),%rax
  4029a2:	48 89 c7             	mov    %rax,%rdi
  4029a5:	e8 86 eb ff ff       	callq  401530 <_ZNSaIcED1Ev@plt>
  4029aa:	48 8d 45 bf          	lea    -0x41(%rbp),%rax
  4029ae:	48 89 c7             	mov    %rax,%rdi
  4029b1:	e8 6a ec ff ff       	callq  401620 <_ZNSaIcEC1Ev@plt>
  4029b6:	48 8d 55 bf          	lea    -0x41(%rbp),%rdx
  4029ba:	48 8d 45 c0          	lea    -0x40(%rbp),%rax
  4029be:	be ee 55 40 00       	mov    $0x4055ee,%esi
  4029c3:	48 89 c7             	mov    %rax,%rdi
  4029c6:	e8 35 ec ff ff       	callq  401600 <_ZNSt7__cxx1112basic_stringIcSt11char_traitsIcESaIcEEC1EPKcRKS3_@plt>
  4029cb:	48 8d 45 c0          	lea    -0x40(%rbp),%rax
  4029cf:	48 89 c6             	mov    %rax,%rsi
  4029d2:	bf e0 73 60 00       	mov    $0x6073e0,%edi
  4029d7:	e8 e2 1d 00 00       	callq  4047be <_ZNSt6vectorINSt7__cxx1112basic_stringIcSt11char_traitsIcESaIcEEESaIS5_EE9push_backEOS5_>
  4029dc:	48 8d 45 c0          	lea    -0x40(%rbp),%rax
  4029e0:	48 89 c7             	mov    %rax,%rdi
  4029e3:	e8 e8 ea ff ff       	callq  4014d0 <_ZNSt7__cxx1112basic_stringIcSt11char_traitsIcESaIcEED1Ev@plt>
  4029e8:	48 8d 45 bf          	lea    -0x41(%rbp),%rax
  4029ec:	48 89 c7             	mov    %rax,%rdi
  4029ef:	e8 3c eb ff ff       	callq  401530 <_ZNSaIcED1Ev@plt>
  4029f4:	48 8d 45 bf          	lea    -0x41(%rbp),%rax
  4029f8:	48 89 c7             	mov    %rax,%rdi
  4029fb:	e8 20 ec ff ff       	callq  401620 <_ZNSaIcEC1Ev@plt>
  402a00:	48 8d 55 bf          	lea    -0x41(%rbp),%rdx
  402a04:	48 8d 45 c0          	lea    -0x40(%rbp),%rax
  402a08:	be f6 55 40 00       	mov    $0x4055f6,%esi
  402a0d:	48 89 c7             	mov    %rax,%rdi
  402a10:	e8 eb eb ff ff       	callq  401600 <_ZNSt7__cxx1112basic_stringIcSt11char_traitsIcESaIcEEC1EPKcRKS3_@plt>
  402a15:	48 8d 45 c0          	lea    -0x40(%rbp),%rax
  402a19:	48 89 c6             	mov    %rax,%rsi
  402a1c:	bf e0 73 60 00       	mov    $0x6073e0,%edi
  402a21:	e8 98 1d 00 00       	callq  4047be <_ZNSt6vectorINSt7__cxx1112basic_stringIcSt11char_traitsIcESaIcEEESaIS5_EE9push_backEOS5_>
  402a26:	48 8d 45 c0          	lea    -0x40(%rbp),%rax
  402a2a:	48 89 c7             	mov    %rax,%rdi
  402a2d:	e8 9e ea ff ff       	callq  4014d0 <_ZNSt7__cxx1112basic_stringIcSt11char_traitsIcESaIcEED1Ev@plt>
  402a32:	48 8d 45 bf          	lea    -0x41(%rbp),%rax
  402a36:	48 89 c7             	mov    %rax,%rdi
  402a39:	e8 f2 ea ff ff       	callq  401530 <_ZNSaIcED1Ev@plt>
  402a3e:	48 8d 45 bf          	lea    -0x41(%rbp),%rax
  402a42:	48 89 c7             	mov    %rax,%rdi
  402a45:	e8 d6 eb ff ff       	callq  401620 <_ZNSaIcEC1Ev@plt>
  402a4a:	48 8d 55 bf          	lea    -0x41(%rbp),%rdx
  402a4e:	48 8d 45 c0          	lea    -0x40(%rbp),%rax
  402a52:	be fe 55 40 00       	mov    $0x4055fe,%esi
  402a57:	48 89 c7             	mov    %rax,%rdi
  402a5a:	e8 a1 eb ff ff       	callq  401600 <_ZNSt7__cxx1112basic_stringIcSt11char_traitsIcESaIcEEC1EPKcRKS3_@plt>
  402a5f:	48 8d 45 c0          	lea    -0x40(%rbp),%rax
  402a63:	48 89 c6             	mov    %rax,%rsi
  402a66:	bf e0 73 60 00       	mov    $0x6073e0,%edi
  402a6b:	e8 4e 1d 00 00       	callq  4047be <_ZNSt6vectorINSt7__cxx1112basic_stringIcSt11char_traitsIcESaIcEEESaIS5_EE9push_backEOS5_>
  402a70:	48 8d 45 c0          	lea    -0x40(%rbp),%rax
  402a74:	48 89 c7             	mov    %rax,%rdi
  402a77:	e8 54 ea ff ff       	callq  4014d0 <_ZNSt7__cxx1112basic_stringIcSt11char_traitsIcESaIcEED1Ev@plt>
  402a7c:	48 8d 45 bf          	lea    -0x41(%rbp),%rax
  402a80:	48 89 c7             	mov    %rax,%rdi
  402a83:	e8 a8 ea ff ff       	callq  401530 <_ZNSaIcED1Ev@plt>
  402a88:	48 8d 45 bf          	lea    -0x41(%rbp),%rax
  402a8c:	48 89 c7             	mov    %rax,%rdi
  402a8f:	e8 8c eb ff ff       	callq  401620 <_ZNSaIcEC1Ev@plt>
  402a94:	48 8d 55 bf          	lea    -0x41(%rbp),%rdx
  402a98:	48 8d 45 c0          	lea    -0x40(%rbp),%rax
  402a9c:	be 06 56 40 00       	mov    $0x405606,%esi
  402aa1:	48 89 c7             	mov    %rax,%rdi
  402aa4:	e8 57 eb ff ff       	callq  401600 <_ZNSt7__cxx1112basic_stringIcSt11char_traitsIcESaIcEEC1EPKcRKS3_@plt>
  402aa9:	48 8d 45 c0          	lea    -0x40(%rbp),%rax
  402aad:	48 89 c6             	mov    %rax,%rsi
  402ab0:	bf e0 73 60 00       	mov    $0x6073e0,%edi
  402ab5:	e8 04 1d 00 00       	callq  4047be <_ZNSt6vectorINSt7__cxx1112basic_stringIcSt11char_traitsIcESaIcEEESaIS5_EE9push_backEOS5_>
  402aba:	48 8d 45 c0          	lea    -0x40(%rbp),%rax
  402abe:	48 89 c7             	mov    %rax,%rdi
  402ac1:	e8 0a ea ff ff       	callq  4014d0 <_ZNSt7__cxx1112basic_stringIcSt11char_traitsIcESaIcEED1Ev@plt>
  402ac6:	48 8d 45 bf          	lea    -0x41(%rbp),%rax
  402aca:	48 89 c7             	mov    %rax,%rdi
  402acd:	e8 5e ea ff ff       	callq  401530 <_ZNSaIcED1Ev@plt>
  402ad2:	48 8d 45 bf          	lea    -0x41(%rbp),%rax
  402ad6:	48 89 c7             	mov    %rax,%rdi
  402ad9:	e8 42 eb ff ff       	callq  401620 <_ZNSaIcEC1Ev@plt>
  402ade:	48 8d 55 bf          	lea    -0x41(%rbp),%rdx
  402ae2:	48 8d 45 c0          	lea    -0x40(%rbp),%rax
  402ae6:	be 0e 56 40 00       	mov    $0x40560e,%esi
  402aeb:	48 89 c7             	mov    %rax,%rdi
  402aee:	e8 0d eb ff ff       	callq  401600 <_ZNSt7__cxx1112basic_stringIcSt11char_traitsIcESaIcEEC1EPKcRKS3_@plt>
  402af3:	48 8d 45 c0          	lea    -0x40(%rbp),%rax
  402af7:	48 89 c6             	mov    %rax,%rsi
  402afa:	bf e0 73 60 00       	mov    $0x6073e0,%edi
  402aff:	e8 ba 1c 00 00       	callq  4047be <_ZNSt6vectorINSt7__cxx1112basic_stringIcSt11char_traitsIcESaIcEEESaIS5_EE9push_backEOS5_>
  402b04:	48 8d 45 c0          	lea    -0x40(%rbp),%rax
  402b08:	48 89 c7             	mov    %rax,%rdi
  402b0b:	e8 c0 e9 ff ff       	callq  4014d0 <_ZNSt7__cxx1112basic_stringIcSt11char_traitsIcESaIcEED1Ev@plt>
  402b10:	48 8d 45 bf          	lea    -0x41(%rbp),%rax
  402b14:	48 89 c7             	mov    %rax,%rdi
  402b17:	e8 14 ea ff ff       	callq  401530 <_ZNSaIcED1Ev@plt>
  402b1c:	48 8d 45 bf          	lea    -0x41(%rbp),%rax
  402b20:	48 89 c7             	mov    %rax,%rdi
  402b23:	e8 f8 ea ff ff       	callq  401620 <_ZNSaIcEC1Ev@plt>
  402b28:	48 8d 55 bf          	lea    -0x41(%rbp),%rdx
  402b2c:	48 8d 45 c0          	lea    -0x40(%rbp),%rax
  402b30:	be 16 56 40 00       	mov    $0x405616,%esi
  402b35:	48 89 c7             	mov    %rax,%rdi
  402b38:	e8 c3 ea ff ff       	callq  401600 <_ZNSt7__cxx1112basic_stringIcSt11char_traitsIcESaIcEEC1EPKcRKS3_@plt>
  402b3d:	48 8d 45 c0          	lea    -0x40(%rbp),%rax
  402b41:	48 89 c6             	mov    %rax,%rsi
  402b44:	bf e0 73 60 00       	mov    $0x6073e0,%edi
  402b49:	e8 70 1c 00 00       	callq  4047be <_ZNSt6vectorINSt7__cxx1112basic_stringIcSt11char_traitsIcESaIcEEESaIS5_EE9push_backEOS5_>
  402b4e:	48 8d 45 c0          	lea    -0x40(%rbp),%rax
  402b52:	48 89 c7             	mov    %rax,%rdi
  402b55:	e8 76 e9 ff ff       	callq  4014d0 <_ZNSt7__cxx1112basic_stringIcSt11char_traitsIcESaIcEED1Ev@plt>
  402b5a:	48 8d 45 bf          	lea    -0x41(%rbp),%rax
  402b5e:	48 89 c7             	mov    %rax,%rdi
  402b61:	e8 ca e9 ff ff       	callq  401530 <_ZNSaIcED1Ev@plt>
  402b66:	48 8d 45 bf          	lea    -0x41(%rbp),%rax
  402b6a:	48 89 c7             	mov    %rax,%rdi
  402b6d:	e8 ae ea ff ff       	callq  401620 <_ZNSaIcEC1Ev@plt>
  402b72:	48 8d 55 bf          	lea    -0x41(%rbp),%rdx
  402b76:	48 8d 45 c0          	lea    -0x40(%rbp),%rax
  402b7a:	be 1e 56 40 00       	mov    $0x40561e,%esi
  402b7f:	48 89 c7             	mov    %rax,%rdi
  402b82:	e8 79 ea ff ff       	callq  401600 <_ZNSt7__cxx1112basic_stringIcSt11char_traitsIcESaIcEEC1EPKcRKS3_@plt>
  402b87:	48 8d 45 c0          	lea    -0x40(%rbp),%rax
  402b8b:	48 89 c6             	mov    %rax,%rsi
  402b8e:	bf e0 73 60 00       	mov    $0x6073e0,%edi
  402b93:	e8 26 1c 00 00       	callq  4047be <_ZNSt6vectorINSt7__cxx1112basic_stringIcSt11char_traitsIcESaIcEEESaIS5_EE9push_backEOS5_>
  402b98:	48 8d 45 c0          	lea    -0x40(%rbp),%rax
  402b9c:	48 89 c7             	mov    %rax,%rdi
  402b9f:	e8 2c e9 ff ff       	callq  4014d0 <_ZNSt7__cxx1112basic_stringIcSt11char_traitsIcESaIcEED1Ev@plt>
  402ba4:	48 8d 45 bf          	lea    -0x41(%rbp),%rax
  402ba8:	48 89 c7             	mov    %rax,%rdi
  402bab:	e8 80 e9 ff ff       	callq  401530 <_ZNSaIcED1Ev@plt>
  402bb0:	48 8d 45 bf          	lea    -0x41(%rbp),%rax
  402bb4:	48 89 c7             	mov    %rax,%rdi
  402bb7:	e8 64 ea ff ff       	callq  401620 <_ZNSaIcEC1Ev@plt>
  402bbc:	48 8d 55 bf          	lea    -0x41(%rbp),%rdx
  402bc0:	48 8d 45 c0          	lea    -0x40(%rbp),%rax
  402bc4:	be 26 56 40 00       	mov    $0x405626,%esi
  402bc9:	48 89 c7             	mov    %rax,%rdi
  402bcc:	e8 2f ea ff ff       	callq  401600 <_ZNSt7__cxx1112basic_stringIcSt11char_traitsIcESaIcEEC1EPKcRKS3_@plt>
  402bd1:	48 8d 45 c0          	lea    -0x40(%rbp),%rax
  402bd5:	48 89 c6             	mov    %rax,%rsi
  402bd8:	bf e0 73 60 00       	mov    $0x6073e0,%edi
  402bdd:	e8 dc 1b 00 00       	callq  4047be <_ZNSt6vectorINSt7__cxx1112basic_stringIcSt11char_traitsIcESaIcEEESaIS5_EE9push_backEOS5_>
  402be2:	48 8d 45 c0          	lea    -0x40(%rbp),%rax
  402be6:	48 89 c7             	mov    %rax,%rdi
  402be9:	e8 e2 e8 ff ff       	callq  4014d0 <_ZNSt7__cxx1112basic_stringIcSt11char_traitsIcESaIcEED1Ev@plt>
  402bee:	48 8d 45 bf          	lea    -0x41(%rbp),%rax
  402bf2:	48 89 c7             	mov    %rax,%rdi
  402bf5:	e8 36 e9 ff ff       	callq  401530 <_ZNSaIcED1Ev@plt>
  402bfa:	48 8d 45 bf          	lea    -0x41(%rbp),%rax
  402bfe:	48 89 c7             	mov    %rax,%rdi
  402c01:	e8 1a ea ff ff       	callq  401620 <_ZNSaIcEC1Ev@plt>
  402c06:	48 8d 55 bf          	lea    -0x41(%rbp),%rdx
  402c0a:	48 8d 45 c0          	lea    -0x40(%rbp),%rax
  402c0e:	be 2e 56 40 00       	mov    $0x40562e,%esi
  402c13:	48 89 c7             	mov    %rax,%rdi
  402c16:	e8 e5 e9 ff ff       	callq  401600 <_ZNSt7__cxx1112basic_stringIcSt11char_traitsIcESaIcEEC1EPKcRKS3_@plt>
  402c1b:	48 8d 45 c0          	lea    -0x40(%rbp),%rax
  402c1f:	48 89 c6             	mov    %rax,%rsi
  402c22:	bf e0 73 60 00       	mov    $0x6073e0,%edi
  402c27:	e8 92 1b 00 00       	callq  4047be <_ZNSt6vectorINSt7__cxx1112basic_stringIcSt11char_traitsIcESaIcEEESaIS5_EE9push_backEOS5_>
  402c2c:	48 8d 45 c0          	lea    -0x40(%rbp),%rax
  402c30:	48 89 c7             	mov    %rax,%rdi
  402c33:	e8 98 e8 ff ff       	callq  4014d0 <_ZNSt7__cxx1112basic_stringIcSt11char_traitsIcESaIcEED1Ev@plt>
  402c38:	48 8d 45 bf          	lea    -0x41(%rbp),%rax
  402c3c:	48 89 c7             	mov    %rax,%rdi
  402c3f:	e8 ec e8 ff ff       	callq  401530 <_ZNSaIcED1Ev@plt>
  402c44:	48 8d 45 bf          	lea    -0x41(%rbp),%rax
  402c48:	48 89 c7             	mov    %rax,%rdi
  402c4b:	e8 d0 e9 ff ff       	callq  401620 <_ZNSaIcEC1Ev@plt>
  402c50:	48 8d 55 bf          	lea    -0x41(%rbp),%rdx
  402c54:	48 8d 45 c0          	lea    -0x40(%rbp),%rax
  402c58:	be 36 56 40 00       	mov    $0x405636,%esi
  402c5d:	48 89 c7             	mov    %rax,%rdi
  402c60:	e8 9b e9 ff ff       	callq  401600 <_ZNSt7__cxx1112basic_stringIcSt11char_traitsIcESaIcEEC1EPKcRKS3_@plt>
  402c65:	48 8d 45 c0          	lea    -0x40(%rbp),%rax
  402c69:	48 89 c6             	mov    %rax,%rsi
  402c6c:	bf e0 73 60 00       	mov    $0x6073e0,%edi
  402c71:	e8 48 1b 00 00       	callq  4047be <_ZNSt6vectorINSt7__cxx1112basic_stringIcSt11char_traitsIcESaIcEEESaIS5_EE9push_backEOS5_>
  402c76:	48 8d 45 c0          	lea    -0x40(%rbp),%rax
  402c7a:	48 89 c7             	mov    %rax,%rdi
  402c7d:	e8 4e e8 ff ff       	callq  4014d0 <_ZNSt7__cxx1112basic_stringIcSt11char_traitsIcESaIcEED1Ev@plt>
  402c82:	48 8d 45 bf          	lea    -0x41(%rbp),%rax
  402c86:	48 89 c7             	mov    %rax,%rdi
  402c89:	e8 a2 e8 ff ff       	callq  401530 <_ZNSaIcED1Ev@plt>
  402c8e:	48 8d 45 bf          	lea    -0x41(%rbp),%rax
  402c92:	48 89 c7             	mov    %rax,%rdi
  402c95:	e8 86 e9 ff ff       	callq  401620 <_ZNSaIcEC1Ev@plt>
  402c9a:	48 8d 55 bf          	lea    -0x41(%rbp),%rdx
  402c9e:	48 8d 45 c0          	lea    -0x40(%rbp),%rax
  402ca2:	be 3e 56 40 00       	mov    $0x40563e,%esi
  402ca7:	48 89 c7             	mov    %rax,%rdi
  402caa:	e8 51 e9 ff ff       	callq  401600 <_ZNSt7__cxx1112basic_stringIcSt11char_traitsIcESaIcEEC1EPKcRKS3_@plt>
  402caf:	48 8d 45 c0          	lea    -0x40(%rbp),%rax
  402cb3:	48 89 c6             	mov    %rax,%rsi
  402cb6:	bf e0 73 60 00       	mov    $0x6073e0,%edi
  402cbb:	e8 fe 1a 00 00       	callq  4047be <_ZNSt6vectorINSt7__cxx1112basic_stringIcSt11char_traitsIcESaIcEEESaIS5_EE9push_backEOS5_>
  402cc0:	48 8d 45 c0          	lea    -0x40(%rbp),%rax
  402cc4:	48 89 c7             	mov    %rax,%rdi
  402cc7:	e8 04 e8 ff ff       	callq  4014d0 <_ZNSt7__cxx1112basic_stringIcSt11char_traitsIcESaIcEED1Ev@plt>
  402ccc:	48 8d 45 bf          	lea    -0x41(%rbp),%rax
  402cd0:	48 89 c7             	mov    %rax,%rdi
  402cd3:	e8 58 e8 ff ff       	callq  401530 <_ZNSaIcED1Ev@plt>
  402cd8:	48 8d 45 bf          	lea    -0x41(%rbp),%rax
  402cdc:	48 89 c7             	mov    %rax,%rdi
  402cdf:	e8 3c e9 ff ff       	callq  401620 <_ZNSaIcEC1Ev@plt>
  402ce4:	48 8d 55 bf          	lea    -0x41(%rbp),%rdx
  402ce8:	48 8d 45 c0          	lea    -0x40(%rbp),%rax
  402cec:	be 46 56 40 00       	mov    $0x405646,%esi
  402cf1:	48 89 c7             	mov    %rax,%rdi
  402cf4:	e8 07 e9 ff ff       	callq  401600 <_ZNSt7__cxx1112basic_stringIcSt11char_traitsIcESaIcEEC1EPKcRKS3_@plt>
  402cf9:	48 8d 45 c0          	lea    -0x40(%rbp),%rax
  402cfd:	48 89 c6             	mov    %rax,%rsi
  402d00:	bf e0 73 60 00       	mov    $0x6073e0,%edi
  402d05:	e8 b4 1a 00 00       	callq  4047be <_ZNSt6vectorINSt7__cxx1112basic_stringIcSt11char_traitsIcESaIcEEESaIS5_EE9push_backEOS5_>
  402d0a:	48 8d 45 c0          	lea    -0x40(%rbp),%rax
  402d0e:	48 89 c7             	mov    %rax,%rdi
  402d11:	e8 ba e7 ff ff       	callq  4014d0 <_ZNSt7__cxx1112basic_stringIcSt11char_traitsIcESaIcEED1Ev@plt>
  402d16:	48 8d 45 bf          	lea    -0x41(%rbp),%rax
  402d1a:	48 89 c7             	mov    %rax,%rdi
  402d1d:	e8 0e e8 ff ff       	callq  401530 <_ZNSaIcED1Ev@plt>
  402d22:	90                   	nop
  402d23:	48 8b 45 e8          	mov    -0x18(%rbp),%rax
  402d27:	64 48 33 04 25 28 00 	xor    %fs:0x28,%rax
  402d2e:	00 00 
  402d30:	0f 84 78 0c 00 00    	je     4039ae <_Z17form_student_listv+0x2208>
  402d36:	e9 6e 0c 00 00       	jmpq   4039a9 <_Z17form_student_listv+0x2203>
  402d3b:	48 89 c3             	mov    %rax,%rbx
  402d3e:	48 8d 45 c0          	lea    -0x40(%rbp),%rax
  402d42:	48 89 c7             	mov    %rax,%rdi
  402d45:	e8 86 e7 ff ff       	callq  4014d0 <_ZNSt7__cxx1112basic_stringIcSt11char_traitsIcESaIcEED1Ev@plt>
  402d4a:	eb 03                	jmp    402d4f <_Z17form_student_listv+0x15a9>
  402d4c:	48 89 c3             	mov    %rax,%rbx
  402d4f:	48 8d 45 bf          	lea    -0x41(%rbp),%rax
  402d53:	48 89 c7             	mov    %rax,%rdi
  402d56:	e8 d5 e7 ff ff       	callq  401530 <_ZNSaIcED1Ev@plt>
  402d5b:	48 89 d8             	mov    %rbx,%rax
  402d5e:	48 89 c7             	mov    %rax,%rdi
  402d61:	e8 0a e9 ff ff       	callq  401670 <_Unwind_Resume@plt>
  402d66:	48 89 c3             	mov    %rax,%rbx
  402d69:	48 8d 45 c0          	lea    -0x40(%rbp),%rax
  402d6d:	48 89 c7             	mov    %rax,%rdi
  402d70:	e8 5b e7 ff ff       	callq  4014d0 <_ZNSt7__cxx1112basic_stringIcSt11char_traitsIcESaIcEED1Ev@plt>
  402d75:	eb 03                	jmp    402d7a <_Z17form_student_listv+0x15d4>
  402d77:	48 89 c3             	mov    %rax,%rbx
  402d7a:	48 8d 45 bf          	lea    -0x41(%rbp),%rax
  402d7e:	48 89 c7             	mov    %rax,%rdi
  402d81:	e8 aa e7 ff ff       	callq  401530 <_ZNSaIcED1Ev@plt>
  402d86:	48 89 d8             	mov    %rbx,%rax
  402d89:	48 89 c7             	mov    %rax,%rdi
  402d8c:	e8 df e8 ff ff       	callq  401670 <_Unwind_Resume@plt>
  402d91:	48 89 c3             	mov    %rax,%rbx
  402d94:	48 8d 45 c0          	lea    -0x40(%rbp),%rax
  402d98:	48 89 c7             	mov    %rax,%rdi
  402d9b:	e8 30 e7 ff ff       	callq  4014d0 <_ZNSt7__cxx1112basic_stringIcSt11char_traitsIcESaIcEED1Ev@plt>
  402da0:	eb 03                	jmp    402da5 <_Z17form_student_listv+0x15ff>
  402da2:	48 89 c3             	mov    %rax,%rbx
  402da5:	48 8d 45 bf          	lea    -0x41(%rbp),%rax
  402da9:	48 89 c7             	mov    %rax,%rdi
  402dac:	e8 7f e7 ff ff       	callq  401530 <_ZNSaIcED1Ev@plt>
  402db1:	48 89 d8             	mov    %rbx,%rax
  402db4:	48 89 c7             	mov    %rax,%rdi
  402db7:	e8 b4 e8 ff ff       	callq  401670 <_Unwind_Resume@plt>
  402dbc:	48 89 c3             	mov    %rax,%rbx
  402dbf:	48 8d 45 c0          	lea    -0x40(%rbp),%rax
  402dc3:	48 89 c7             	mov    %rax,%rdi
  402dc6:	e8 05 e7 ff ff       	callq  4014d0 <_ZNSt7__cxx1112basic_stringIcSt11char_traitsIcESaIcEED1Ev@plt>
  402dcb:	eb 03                	jmp    402dd0 <_Z17form_student_listv+0x162a>
  402dcd:	48 89 c3             	mov    %rax,%rbx
  402dd0:	48 8d 45 bf          	lea    -0x41(%rbp),%rax
  402dd4:	48 89 c7             	mov    %rax,%rdi
  402dd7:	e8 54 e7 ff ff       	callq  401530 <_ZNSaIcED1Ev@plt>
  402ddc:	48 89 d8             	mov    %rbx,%rax
  402ddf:	48 89 c7             	mov    %rax,%rdi
  402de2:	e8 89 e8 ff ff       	callq  401670 <_Unwind_Resume@plt>
  402de7:	48 89 c3             	mov    %rax,%rbx
  402dea:	48 8d 45 c0          	lea    -0x40(%rbp),%rax
  402dee:	48 89 c7             	mov    %rax,%rdi
  402df1:	e8 da e6 ff ff       	callq  4014d0 <_ZNSt7__cxx1112basic_stringIcSt11char_traitsIcESaIcEED1Ev@plt>
  402df6:	eb 03                	jmp    402dfb <_Z17form_student_listv+0x1655>
  402df8:	48 89 c3             	mov    %rax,%rbx
  402dfb:	48 8d 45 bf          	lea    -0x41(%rbp),%rax
  402dff:	48 89 c7             	mov    %rax,%rdi
  402e02:	e8 29 e7 ff ff       	callq  401530 <_ZNSaIcED1Ev@plt>
  402e07:	48 89 d8             	mov    %rbx,%rax
  402e0a:	48 89 c7             	mov    %rax,%rdi
  402e0d:	e8 5e e8 ff ff       	callq  401670 <_Unwind_Resume@plt>
  402e12:	48 89 c3             	mov    %rax,%rbx
  402e15:	48 8d 45 c0          	lea    -0x40(%rbp),%rax
  402e19:	48 89 c7             	mov    %rax,%rdi
  402e1c:	e8 af e6 ff ff       	callq  4014d0 <_ZNSt7__cxx1112basic_stringIcSt11char_traitsIcESaIcEED1Ev@plt>
  402e21:	eb 03                	jmp    402e26 <_Z17form_student_listv+0x1680>
  402e23:	48 89 c3             	mov    %rax,%rbx
  402e26:	48 8d 45 bf          	lea    -0x41(%rbp),%rax
  402e2a:	48 89 c7             	mov    %rax,%rdi
  402e2d:	e8 fe e6 ff ff       	callq  401530 <_ZNSaIcED1Ev@plt>
  402e32:	48 89 d8             	mov    %rbx,%rax
  402e35:	48 89 c7             	mov    %rax,%rdi
  402e38:	e8 33 e8 ff ff       	callq  401670 <_Unwind_Resume@plt>
  402e3d:	48 89 c3             	mov    %rax,%rbx
  402e40:	48 8d 45 c0          	lea    -0x40(%rbp),%rax
  402e44:	48 89 c7             	mov    %rax,%rdi
  402e47:	e8 84 e6 ff ff       	callq  4014d0 <_ZNSt7__cxx1112basic_stringIcSt11char_traitsIcESaIcEED1Ev@plt>
  402e4c:	eb 03                	jmp    402e51 <_Z17form_student_listv+0x16ab>
  402e4e:	48 89 c3             	mov    %rax,%rbx
  402e51:	48 8d 45 bf          	lea    -0x41(%rbp),%rax
  402e55:	48 89 c7             	mov    %rax,%rdi
  402e58:	e8 d3 e6 ff ff       	callq  401530 <_ZNSaIcED1Ev@plt>
  402e5d:	48 89 d8             	mov    %rbx,%rax
  402e60:	48 89 c7             	mov    %rax,%rdi
  402e63:	e8 08 e8 ff ff       	callq  401670 <_Unwind_Resume@plt>
  402e68:	48 89 c3             	mov    %rax,%rbx
  402e6b:	48 8d 45 c0          	lea    -0x40(%rbp),%rax
  402e6f:	48 89 c7             	mov    %rax,%rdi
  402e72:	e8 59 e6 ff ff       	callq  4014d0 <_ZNSt7__cxx1112basic_stringIcSt11char_traitsIcESaIcEED1Ev@plt>
  402e77:	eb 03                	jmp    402e7c <_Z17form_student_listv+0x16d6>
  402e79:	48 89 c3             	mov    %rax,%rbx
  402e7c:	48 8d 45 bf          	lea    -0x41(%rbp),%rax
  402e80:	48 89 c7             	mov    %rax,%rdi
  402e83:	e8 a8 e6 ff ff       	callq  401530 <_ZNSaIcED1Ev@plt>
  402e88:	48 89 d8             	mov    %rbx,%rax
  402e8b:	48 89 c7             	mov    %rax,%rdi
  402e8e:	e8 dd e7 ff ff       	callq  401670 <_Unwind_Resume@plt>
  402e93:	48 89 c3             	mov    %rax,%rbx
  402e96:	48 8d 45 c0          	lea    -0x40(%rbp),%rax
  402e9a:	48 89 c7             	mov    %rax,%rdi
  402e9d:	e8 2e e6 ff ff       	callq  4014d0 <_ZNSt7__cxx1112basic_stringIcSt11char_traitsIcESaIcEED1Ev@plt>
  402ea2:	eb 03                	jmp    402ea7 <_Z17form_student_listv+0x1701>
  402ea4:	48 89 c3             	mov    %rax,%rbx
  402ea7:	48 8d 45 bf          	lea    -0x41(%rbp),%rax
  402eab:	48 89 c7             	mov    %rax,%rdi
  402eae:	e8 7d e6 ff ff       	callq  401530 <_ZNSaIcED1Ev@plt>
  402eb3:	48 89 d8             	mov    %rbx,%rax
  402eb6:	48 89 c7             	mov    %rax,%rdi
  402eb9:	e8 b2 e7 ff ff       	callq  401670 <_Unwind_Resume@plt>
  402ebe:	48 89 c3             	mov    %rax,%rbx
  402ec1:	48 8d 45 c0          	lea    -0x40(%rbp),%rax
  402ec5:	48 89 c7             	mov    %rax,%rdi
  402ec8:	e8 03 e6 ff ff       	callq  4014d0 <_ZNSt7__cxx1112basic_stringIcSt11char_traitsIcESaIcEED1Ev@plt>
  402ecd:	eb 03                	jmp    402ed2 <_Z17form_student_listv+0x172c>
  402ecf:	48 89 c3             	mov    %rax,%rbx
  402ed2:	48 8d 45 bf          	lea    -0x41(%rbp),%rax
  402ed6:	48 89 c7             	mov    %rax,%rdi
  402ed9:	e8 52 e6 ff ff       	callq  401530 <_ZNSaIcED1Ev@plt>
  402ede:	48 89 d8             	mov    %rbx,%rax
  402ee1:	48 89 c7             	mov    %rax,%rdi
  402ee4:	e8 87 e7 ff ff       	callq  401670 <_Unwind_Resume@plt>
  402ee9:	48 89 c3             	mov    %rax,%rbx
  402eec:	48 8d 45 c0          	lea    -0x40(%rbp),%rax
  402ef0:	48 89 c7             	mov    %rax,%rdi
  402ef3:	e8 d8 e5 ff ff       	callq  4014d0 <_ZNSt7__cxx1112basic_stringIcSt11char_traitsIcESaIcEED1Ev@plt>
  402ef8:	eb 03                	jmp    402efd <_Z17form_student_listv+0x1757>
  402efa:	48 89 c3             	mov    %rax,%rbx
  402efd:	48 8d 45 bf          	lea    -0x41(%rbp),%rax
  402f01:	48 89 c7             	mov    %rax,%rdi
  402f04:	e8 27 e6 ff ff       	callq  401530 <_ZNSaIcED1Ev@plt>
  402f09:	48 89 d8             	mov    %rbx,%rax
  402f0c:	48 89 c7             	mov    %rax,%rdi
  402f0f:	e8 5c e7 ff ff       	callq  401670 <_Unwind_Resume@plt>
  402f14:	48 89 c3             	mov    %rax,%rbx
  402f17:	48 8d 45 c0          	lea    -0x40(%rbp),%rax
  402f1b:	48 89 c7             	mov    %rax,%rdi
  402f1e:	e8 ad e5 ff ff       	callq  4014d0 <_ZNSt7__cxx1112basic_stringIcSt11char_traitsIcESaIcEED1Ev@plt>
  402f23:	eb 03                	jmp    402f28 <_Z17form_student_listv+0x1782>
  402f25:	48 89 c3             	mov    %rax,%rbx
  402f28:	48 8d 45 bf          	lea    -0x41(%rbp),%rax
  402f2c:	48 89 c7             	mov    %rax,%rdi
  402f2f:	e8 fc e5 ff ff       	callq  401530 <_ZNSaIcED1Ev@plt>
  402f34:	48 89 d8             	mov    %rbx,%rax
  402f37:	48 89 c7             	mov    %rax,%rdi
  402f3a:	e8 31 e7 ff ff       	callq  401670 <_Unwind_Resume@plt>
  402f3f:	48 89 c3             	mov    %rax,%rbx
  402f42:	48 8d 45 c0          	lea    -0x40(%rbp),%rax
  402f46:	48 89 c7             	mov    %rax,%rdi
  402f49:	e8 82 e5 ff ff       	callq  4014d0 <_ZNSt7__cxx1112basic_stringIcSt11char_traitsIcESaIcEED1Ev@plt>
  402f4e:	eb 03                	jmp    402f53 <_Z17form_student_listv+0x17ad>
  402f50:	48 89 c3             	mov    %rax,%rbx
  402f53:	48 8d 45 bf          	lea    -0x41(%rbp),%rax
  402f57:	48 89 c7             	mov    %rax,%rdi
  402f5a:	e8 d1 e5 ff ff       	callq  401530 <_ZNSaIcED1Ev@plt>
  402f5f:	48 89 d8             	mov    %rbx,%rax
  402f62:	48 89 c7             	mov    %rax,%rdi
  402f65:	e8 06 e7 ff ff       	callq  401670 <_Unwind_Resume@plt>
  402f6a:	48 89 c3             	mov    %rax,%rbx
  402f6d:	48 8d 45 c0          	lea    -0x40(%rbp),%rax
  402f71:	48 89 c7             	mov    %rax,%rdi
  402f74:	e8 57 e5 ff ff       	callq  4014d0 <_ZNSt7__cxx1112basic_stringIcSt11char_traitsIcESaIcEED1Ev@plt>
  402f79:	eb 03                	jmp    402f7e <_Z17form_student_listv+0x17d8>
  402f7b:	48 89 c3             	mov    %rax,%rbx
  402f7e:	48 8d 45 bf          	lea    -0x41(%rbp),%rax
  402f82:	48 89 c7             	mov    %rax,%rdi
  402f85:	e8 a6 e5 ff ff       	callq  401530 <_ZNSaIcED1Ev@plt>
  402f8a:	48 89 d8             	mov    %rbx,%rax
  402f8d:	48 89 c7             	mov    %rax,%rdi
  402f90:	e8 db e6 ff ff       	callq  401670 <_Unwind_Resume@plt>
  402f95:	48 89 c3             	mov    %rax,%rbx
  402f98:	48 8d 45 c0          	lea    -0x40(%rbp),%rax
  402f9c:	48 89 c7             	mov    %rax,%rdi
  402f9f:	e8 2c e5 ff ff       	callq  4014d0 <_ZNSt7__cxx1112basic_stringIcSt11char_traitsIcESaIcEED1Ev@plt>
  402fa4:	eb 03                	jmp    402fa9 <_Z17form_student_listv+0x1803>
  402fa6:	48 89 c3             	mov    %rax,%rbx
  402fa9:	48 8d 45 bf          	lea    -0x41(%rbp),%rax
  402fad:	48 89 c7             	mov    %rax,%rdi
  402fb0:	e8 7b e5 ff ff       	callq  401530 <_ZNSaIcED1Ev@plt>
  402fb5:	48 89 d8             	mov    %rbx,%rax
  402fb8:	48 89 c7             	mov    %rax,%rdi
  402fbb:	e8 b0 e6 ff ff       	callq  401670 <_Unwind_Resume@plt>
  402fc0:	48 89 c3             	mov    %rax,%rbx
  402fc3:	48 8d 45 c0          	lea    -0x40(%rbp),%rax
  402fc7:	48 89 c7             	mov    %rax,%rdi
  402fca:	e8 01 e5 ff ff       	callq  4014d0 <_ZNSt7__cxx1112basic_stringIcSt11char_traitsIcESaIcEED1Ev@plt>
  402fcf:	eb 03                	jmp    402fd4 <_Z17form_student_listv+0x182e>
  402fd1:	48 89 c3             	mov    %rax,%rbx
  402fd4:	48 8d 45 bf          	lea    -0x41(%rbp),%rax
  402fd8:	48 89 c7             	mov    %rax,%rdi
  402fdb:	e8 50 e5 ff ff       	callq  401530 <_ZNSaIcED1Ev@plt>
  402fe0:	48 89 d8             	mov    %rbx,%rax
  402fe3:	48 89 c7             	mov    %rax,%rdi
  402fe6:	e8 85 e6 ff ff       	callq  401670 <_Unwind_Resume@plt>
  402feb:	48 89 c3             	mov    %rax,%rbx
  402fee:	48 8d 45 c0          	lea    -0x40(%rbp),%rax
  402ff2:	48 89 c7             	mov    %rax,%rdi
  402ff5:	e8 d6 e4 ff ff       	callq  4014d0 <_ZNSt7__cxx1112basic_stringIcSt11char_traitsIcESaIcEED1Ev@plt>
  402ffa:	eb 03                	jmp    402fff <_Z17form_student_listv+0x1859>
  402ffc:	48 89 c3             	mov    %rax,%rbx
  402fff:	48 8d 45 bf          	lea    -0x41(%rbp),%rax
  403003:	48 89 c7             	mov    %rax,%rdi
  403006:	e8 25 e5 ff ff       	callq  401530 <_ZNSaIcED1Ev@plt>
  40300b:	48 89 d8             	mov    %rbx,%rax
  40300e:	48 89 c7             	mov    %rax,%rdi
  403011:	e8 5a e6 ff ff       	callq  401670 <_Unwind_Resume@plt>
  403016:	48 89 c3             	mov    %rax,%rbx
  403019:	48 8d 45 c0          	lea    -0x40(%rbp),%rax
  40301d:	48 89 c7             	mov    %rax,%rdi
  403020:	e8 ab e4 ff ff       	callq  4014d0 <_ZNSt7__cxx1112basic_stringIcSt11char_traitsIcESaIcEED1Ev@plt>
  403025:	eb 03                	jmp    40302a <_Z17form_student_listv+0x1884>
  403027:	48 89 c3             	mov    %rax,%rbx
  40302a:	48 8d 45 bf          	lea    -0x41(%rbp),%rax
  40302e:	48 89 c7             	mov    %rax,%rdi
  403031:	e8 fa e4 ff ff       	callq  401530 <_ZNSaIcED1Ev@plt>
  403036:	48 89 d8             	mov    %rbx,%rax
  403039:	48 89 c7             	mov    %rax,%rdi
  40303c:	e8 2f e6 ff ff       	callq  401670 <_Unwind_Resume@plt>
  403041:	48 89 c3             	mov    %rax,%rbx
  403044:	48 8d 45 c0          	lea    -0x40(%rbp),%rax
  403048:	48 89 c7             	mov    %rax,%rdi
  40304b:	e8 80 e4 ff ff       	callq  4014d0 <_ZNSt7__cxx1112basic_stringIcSt11char_traitsIcESaIcEED1Ev@plt>
  403050:	eb 03                	jmp    403055 <_Z17form_student_listv+0x18af>
  403052:	48 89 c3             	mov    %rax,%rbx
  403055:	48 8d 45 bf          	lea    -0x41(%rbp),%rax
  403059:	48 89 c7             	mov    %rax,%rdi
  40305c:	e8 cf e4 ff ff       	callq  401530 <_ZNSaIcED1Ev@plt>
  403061:	48 89 d8             	mov    %rbx,%rax
  403064:	48 89 c7             	mov    %rax,%rdi
  403067:	e8 04 e6 ff ff       	callq  401670 <_Unwind_Resume@plt>
  40306c:	48 89 c3             	mov    %rax,%rbx
  40306f:	48 8d 45 c0          	lea    -0x40(%rbp),%rax
  403073:	48 89 c7             	mov    %rax,%rdi
  403076:	e8 55 e4 ff ff       	callq  4014d0 <_ZNSt7__cxx1112basic_stringIcSt11char_traitsIcESaIcEED1Ev@plt>
  40307b:	eb 03                	jmp    403080 <_Z17form_student_listv+0x18da>
  40307d:	48 89 c3             	mov    %rax,%rbx
  403080:	48 8d 45 bf          	lea    -0x41(%rbp),%rax
  403084:	48 89 c7             	mov    %rax,%rdi
  403087:	e8 a4 e4 ff ff       	callq  401530 <_ZNSaIcED1Ev@plt>
  40308c:	48 89 d8             	mov    %rbx,%rax
  40308f:	48 89 c7             	mov    %rax,%rdi
  403092:	e8 d9 e5 ff ff       	callq  401670 <_Unwind_Resume@plt>
  403097:	48 89 c3             	mov    %rax,%rbx
  40309a:	48 8d 45 c0          	lea    -0x40(%rbp),%rax
  40309e:	48 89 c7             	mov    %rax,%rdi
  4030a1:	e8 2a e4 ff ff       	callq  4014d0 <_ZNSt7__cxx1112basic_stringIcSt11char_traitsIcESaIcEED1Ev@plt>
  4030a6:	eb 03                	jmp    4030ab <_Z17form_student_listv+0x1905>
  4030a8:	48 89 c3             	mov    %rax,%rbx
  4030ab:	48 8d 45 bf          	lea    -0x41(%rbp),%rax
  4030af:	48 89 c7             	mov    %rax,%rdi
  4030b2:	e8 79 e4 ff ff       	callq  401530 <_ZNSaIcED1Ev@plt>
  4030b7:	48 89 d8             	mov    %rbx,%rax
  4030ba:	48 89 c7             	mov    %rax,%rdi
  4030bd:	e8 ae e5 ff ff       	callq  401670 <_Unwind_Resume@plt>
  4030c2:	48 89 c3             	mov    %rax,%rbx
  4030c5:	48 8d 45 c0          	lea    -0x40(%rbp),%rax
  4030c9:	48 89 c7             	mov    %rax,%rdi
  4030cc:	e8 ff e3 ff ff       	callq  4014d0 <_ZNSt7__cxx1112basic_stringIcSt11char_traitsIcESaIcEED1Ev@plt>
  4030d1:	eb 03                	jmp    4030d6 <_Z17form_student_listv+0x1930>
  4030d3:	48 89 c3             	mov    %rax,%rbx
  4030d6:	48 8d 45 bf          	lea    -0x41(%rbp),%rax
  4030da:	48 89 c7             	mov    %rax,%rdi
  4030dd:	e8 4e e4 ff ff       	callq  401530 <_ZNSaIcED1Ev@plt>
  4030e2:	48 89 d8             	mov    %rbx,%rax
  4030e5:	48 89 c7             	mov    %rax,%rdi
  4030e8:	e8 83 e5 ff ff       	callq  401670 <_Unwind_Resume@plt>
  4030ed:	48 89 c3             	mov    %rax,%rbx
  4030f0:	48 8d 45 c0          	lea    -0x40(%rbp),%rax
  4030f4:	48 89 c7             	mov    %rax,%rdi
  4030f7:	e8 d4 e3 ff ff       	callq  4014d0 <_ZNSt7__cxx1112basic_stringIcSt11char_traitsIcESaIcEED1Ev@plt>
  4030fc:	eb 03                	jmp    403101 <_Z17form_student_listv+0x195b>
  4030fe:	48 89 c3             	mov    %rax,%rbx
  403101:	48 8d 45 bf          	lea    -0x41(%rbp),%rax
  403105:	48 89 c7             	mov    %rax,%rdi
  403108:	e8 23 e4 ff ff       	callq  401530 <_ZNSaIcED1Ev@plt>
  40310d:	48 89 d8             	mov    %rbx,%rax
  403110:	48 89 c7             	mov    %rax,%rdi
  403113:	e8 58 e5 ff ff       	callq  401670 <_Unwind_Resume@plt>
  403118:	48 89 c3             	mov    %rax,%rbx
  40311b:	48 8d 45 c0          	lea    -0x40(%rbp),%rax
  40311f:	48 89 c7             	mov    %rax,%rdi
  403122:	e8 a9 e3 ff ff       	callq  4014d0 <_ZNSt7__cxx1112basic_stringIcSt11char_traitsIcESaIcEED1Ev@plt>
  403127:	eb 03                	jmp    40312c <_Z17form_student_listv+0x1986>
  403129:	48 89 c3             	mov    %rax,%rbx
  40312c:	48 8d 45 bf          	lea    -0x41(%rbp),%rax
  403130:	48 89 c7             	mov    %rax,%rdi
  403133:	e8 f8 e3 ff ff       	callq  401530 <_ZNSaIcED1Ev@plt>
  403138:	48 89 d8             	mov    %rbx,%rax
  40313b:	48 89 c7             	mov    %rax,%rdi
  40313e:	e8 2d e5 ff ff       	callq  401670 <_Unwind_Resume@plt>
  403143:	48 89 c3             	mov    %rax,%rbx
  403146:	48 8d 45 c0          	lea    -0x40(%rbp),%rax
  40314a:	48 89 c7             	mov    %rax,%rdi
  40314d:	e8 7e e3 ff ff       	callq  4014d0 <_ZNSt7__cxx1112basic_stringIcSt11char_traitsIcESaIcEED1Ev@plt>
  403152:	eb 03                	jmp    403157 <_Z17form_student_listv+0x19b1>
  403154:	48 89 c3             	mov    %rax,%rbx
  403157:	48 8d 45 bf          	lea    -0x41(%rbp),%rax
  40315b:	48 89 c7             	mov    %rax,%rdi
  40315e:	e8 cd e3 ff ff       	callq  401530 <_ZNSaIcED1Ev@plt>
  403163:	48 89 d8             	mov    %rbx,%rax
  403166:	48 89 c7             	mov    %rax,%rdi
  403169:	e8 02 e5 ff ff       	callq  401670 <_Unwind_Resume@plt>
  40316e:	48 89 c3             	mov    %rax,%rbx
  403171:	48 8d 45 c0          	lea    -0x40(%rbp),%rax
  403175:	48 89 c7             	mov    %rax,%rdi
  403178:	e8 53 e3 ff ff       	callq  4014d0 <_ZNSt7__cxx1112basic_stringIcSt11char_traitsIcESaIcEED1Ev@plt>
  40317d:	eb 03                	jmp    403182 <_Z17form_student_listv+0x19dc>
  40317f:	48 89 c3             	mov    %rax,%rbx
  403182:	48 8d 45 bf          	lea    -0x41(%rbp),%rax
  403186:	48 89 c7             	mov    %rax,%rdi
  403189:	e8 a2 e3 ff ff       	callq  401530 <_ZNSaIcED1Ev@plt>
  40318e:	48 89 d8             	mov    %rbx,%rax
  403191:	48 89 c7             	mov    %rax,%rdi
  403194:	e8 d7 e4 ff ff       	callq  401670 <_Unwind_Resume@plt>
  403199:	48 89 c3             	mov    %rax,%rbx
  40319c:	48 8d 45 c0          	lea    -0x40(%rbp),%rax
  4031a0:	48 89 c7             	mov    %rax,%rdi
  4031a3:	e8 28 e3 ff ff       	callq  4014d0 <_ZNSt7__cxx1112basic_stringIcSt11char_traitsIcESaIcEED1Ev@plt>
  4031a8:	eb 03                	jmp    4031ad <_Z17form_student_listv+0x1a07>
  4031aa:	48 89 c3             	mov    %rax,%rbx
  4031ad:	48 8d 45 bf          	lea    -0x41(%rbp),%rax
  4031b1:	48 89 c7             	mov    %rax,%rdi
  4031b4:	e8 77 e3 ff ff       	callq  401530 <_ZNSaIcED1Ev@plt>
  4031b9:	48 89 d8             	mov    %rbx,%rax
  4031bc:	48 89 c7             	mov    %rax,%rdi
  4031bf:	e8 ac e4 ff ff       	callq  401670 <_Unwind_Resume@plt>
  4031c4:	48 89 c3             	mov    %rax,%rbx
  4031c7:	48 8d 45 c0          	lea    -0x40(%rbp),%rax
  4031cb:	48 89 c7             	mov    %rax,%rdi
  4031ce:	e8 fd e2 ff ff       	callq  4014d0 <_ZNSt7__cxx1112basic_stringIcSt11char_traitsIcESaIcEED1Ev@plt>
  4031d3:	eb 03                	jmp    4031d8 <_Z17form_student_listv+0x1a32>
  4031d5:	48 89 c3             	mov    %rax,%rbx
  4031d8:	48 8d 45 bf          	lea    -0x41(%rbp),%rax
  4031dc:	48 89 c7             	mov    %rax,%rdi
  4031df:	e8 4c e3 ff ff       	callq  401530 <_ZNSaIcED1Ev@plt>
  4031e4:	48 89 d8             	mov    %rbx,%rax
  4031e7:	48 89 c7             	mov    %rax,%rdi
  4031ea:	e8 81 e4 ff ff       	callq  401670 <_Unwind_Resume@plt>
  4031ef:	48 89 c3             	mov    %rax,%rbx
  4031f2:	48 8d 45 c0          	lea    -0x40(%rbp),%rax
  4031f6:	48 89 c7             	mov    %rax,%rdi
  4031f9:	e8 d2 e2 ff ff       	callq  4014d0 <_ZNSt7__cxx1112basic_stringIcSt11char_traitsIcESaIcEED1Ev@plt>
  4031fe:	eb 03                	jmp    403203 <_Z17form_student_listv+0x1a5d>
  403200:	48 89 c3             	mov    %rax,%rbx
  403203:	48 8d 45 bf          	lea    -0x41(%rbp),%rax
  403207:	48 89 c7             	mov    %rax,%rdi
  40320a:	e8 21 e3 ff ff       	callq  401530 <_ZNSaIcED1Ev@plt>
  40320f:	48 89 d8             	mov    %rbx,%rax
  403212:	48 89 c7             	mov    %rax,%rdi
  403215:	e8 56 e4 ff ff       	callq  401670 <_Unwind_Resume@plt>
  40321a:	48 89 c3             	mov    %rax,%rbx
  40321d:	48 8d 45 c0          	lea    -0x40(%rbp),%rax
  403221:	48 89 c7             	mov    %rax,%rdi
  403224:	e8 a7 e2 ff ff       	callq  4014d0 <_ZNSt7__cxx1112basic_stringIcSt11char_traitsIcESaIcEED1Ev@plt>
  403229:	eb 03                	jmp    40322e <_Z17form_student_listv+0x1a88>
  40322b:	48 89 c3             	mov    %rax,%rbx
  40322e:	48 8d 45 bf          	lea    -0x41(%rbp),%rax
  403232:	48 89 c7             	mov    %rax,%rdi
  403235:	e8 f6 e2 ff ff       	callq  401530 <_ZNSaIcED1Ev@plt>
  40323a:	48 89 d8             	mov    %rbx,%rax
  40323d:	48 89 c7             	mov    %rax,%rdi
  403240:	e8 2b e4 ff ff       	callq  401670 <_Unwind_Resume@plt>
  403245:	48 89 c3             	mov    %rax,%rbx
  403248:	48 8d 45 c0          	lea    -0x40(%rbp),%rax
  40324c:	48 89 c7             	mov    %rax,%rdi
  40324f:	e8 7c e2 ff ff       	callq  4014d0 <_ZNSt7__cxx1112basic_stringIcSt11char_traitsIcESaIcEED1Ev@plt>
  403254:	eb 03                	jmp    403259 <_Z17form_student_listv+0x1ab3>
  403256:	48 89 c3             	mov    %rax,%rbx
  403259:	48 8d 45 bf          	lea    -0x41(%rbp),%rax
  40325d:	48 89 c7             	mov    %rax,%rdi
  403260:	e8 cb e2 ff ff       	callq  401530 <_ZNSaIcED1Ev@plt>
  403265:	48 89 d8             	mov    %rbx,%rax
  403268:	48 89 c7             	mov    %rax,%rdi
  40326b:	e8 00 e4 ff ff       	callq  401670 <_Unwind_Resume@plt>
  403270:	48 89 c3             	mov    %rax,%rbx
  403273:	48 8d 45 c0          	lea    -0x40(%rbp),%rax
  403277:	48 89 c7             	mov    %rax,%rdi
  40327a:	e8 51 e2 ff ff       	callq  4014d0 <_ZNSt7__cxx1112basic_stringIcSt11char_traitsIcESaIcEED1Ev@plt>
  40327f:	eb 03                	jmp    403284 <_Z17form_student_listv+0x1ade>
  403281:	48 89 c3             	mov    %rax,%rbx
  403284:	48 8d 45 bf          	lea    -0x41(%rbp),%rax
  403288:	48 89 c7             	mov    %rax,%rdi
  40328b:	e8 a0 e2 ff ff       	callq  401530 <_ZNSaIcED1Ev@plt>
  403290:	48 89 d8             	mov    %rbx,%rax
  403293:	48 89 c7             	mov    %rax,%rdi
  403296:	e8 d5 e3 ff ff       	callq  401670 <_Unwind_Resume@plt>
  40329b:	48 89 c3             	mov    %rax,%rbx
  40329e:	48 8d 45 c0          	lea    -0x40(%rbp),%rax
  4032a2:	48 89 c7             	mov    %rax,%rdi
  4032a5:	e8 26 e2 ff ff       	callq  4014d0 <_ZNSt7__cxx1112basic_stringIcSt11char_traitsIcESaIcEED1Ev@plt>
  4032aa:	eb 03                	jmp    4032af <_Z17form_student_listv+0x1b09>
  4032ac:	48 89 c3             	mov    %rax,%rbx
  4032af:	48 8d 45 bf          	lea    -0x41(%rbp),%rax
  4032b3:	48 89 c7             	mov    %rax,%rdi
  4032b6:	e8 75 e2 ff ff       	callq  401530 <_ZNSaIcED1Ev@plt>
  4032bb:	48 89 d8             	mov    %rbx,%rax
  4032be:	48 89 c7             	mov    %rax,%rdi
  4032c1:	e8 aa e3 ff ff       	callq  401670 <_Unwind_Resume@plt>
  4032c6:	48 89 c3             	mov    %rax,%rbx
  4032c9:	48 8d 45 c0          	lea    -0x40(%rbp),%rax
  4032cd:	48 89 c7             	mov    %rax,%rdi
  4032d0:	e8 fb e1 ff ff       	callq  4014d0 <_ZNSt7__cxx1112basic_stringIcSt11char_traitsIcESaIcEED1Ev@plt>
  4032d5:	eb 03                	jmp    4032da <_Z17form_student_listv+0x1b34>
  4032d7:	48 89 c3             	mov    %rax,%rbx
  4032da:	48 8d 45 bf          	lea    -0x41(%rbp),%rax
  4032de:	48 89 c7             	mov    %rax,%rdi
  4032e1:	e8 4a e2 ff ff       	callq  401530 <_ZNSaIcED1Ev@plt>
  4032e6:	48 89 d8             	mov    %rbx,%rax
  4032e9:	48 89 c7             	mov    %rax,%rdi
  4032ec:	e8 7f e3 ff ff       	callq  401670 <_Unwind_Resume@plt>
  4032f1:	48 89 c3             	mov    %rax,%rbx
  4032f4:	48 8d 45 c0          	lea    -0x40(%rbp),%rax
  4032f8:	48 89 c7             	mov    %rax,%rdi
  4032fb:	e8 d0 e1 ff ff       	callq  4014d0 <_ZNSt7__cxx1112basic_stringIcSt11char_traitsIcESaIcEED1Ev@plt>
  403300:	eb 03                	jmp    403305 <_Z17form_student_listv+0x1b5f>
  403302:	48 89 c3             	mov    %rax,%rbx
  403305:	48 8d 45 bf          	lea    -0x41(%rbp),%rax
  403309:	48 89 c7             	mov    %rax,%rdi
  40330c:	e8 1f e2 ff ff       	callq  401530 <_ZNSaIcED1Ev@plt>
  403311:	48 89 d8             	mov    %rbx,%rax
  403314:	48 89 c7             	mov    %rax,%rdi
  403317:	e8 54 e3 ff ff       	callq  401670 <_Unwind_Resume@plt>
  40331c:	48 89 c3             	mov    %rax,%rbx
  40331f:	48 8d 45 c0          	lea    -0x40(%rbp),%rax
  403323:	48 89 c7             	mov    %rax,%rdi
  403326:	e8 a5 e1 ff ff       	callq  4014d0 <_ZNSt7__cxx1112basic_stringIcSt11char_traitsIcESaIcEED1Ev@plt>
  40332b:	eb 03                	jmp    403330 <_Z17form_student_listv+0x1b8a>
  40332d:	48 89 c3             	mov    %rax,%rbx
  403330:	48 8d 45 bf          	lea    -0x41(%rbp),%rax
  403334:	48 89 c7             	mov    %rax,%rdi
  403337:	e8 f4 e1 ff ff       	callq  401530 <_ZNSaIcED1Ev@plt>
  40333c:	48 89 d8             	mov    %rbx,%rax
  40333f:	48 89 c7             	mov    %rax,%rdi
  403342:	e8 29 e3 ff ff       	callq  401670 <_Unwind_Resume@plt>
  403347:	48 89 c3             	mov    %rax,%rbx
  40334a:	48 8d 45 c0          	lea    -0x40(%rbp),%rax
  40334e:	48 89 c7             	mov    %rax,%rdi
  403351:	e8 7a e1 ff ff       	callq  4014d0 <_ZNSt7__cxx1112basic_stringIcSt11char_traitsIcESaIcEED1Ev@plt>
  403356:	eb 03                	jmp    40335b <_Z17form_student_listv+0x1bb5>
  403358:	48 89 c3             	mov    %rax,%rbx
  40335b:	48 8d 45 bf          	lea    -0x41(%rbp),%rax
  40335f:	48 89 c7             	mov    %rax,%rdi
  403362:	e8 c9 e1 ff ff       	callq  401530 <_ZNSaIcED1Ev@plt>
  403367:	48 89 d8             	mov    %rbx,%rax
  40336a:	48 89 c7             	mov    %rax,%rdi
  40336d:	e8 fe e2 ff ff       	callq  401670 <_Unwind_Resume@plt>
  403372:	48 89 c3             	mov    %rax,%rbx
  403375:	48 8d 45 c0          	lea    -0x40(%rbp),%rax
  403379:	48 89 c7             	mov    %rax,%rdi
  40337c:	e8 4f e1 ff ff       	callq  4014d0 <_ZNSt7__cxx1112basic_stringIcSt11char_traitsIcESaIcEED1Ev@plt>
  403381:	eb 03                	jmp    403386 <_Z17form_student_listv+0x1be0>
  403383:	48 89 c3             	mov    %rax,%rbx
  403386:	48 8d 45 bf          	lea    -0x41(%rbp),%rax
  40338a:	48 89 c7             	mov    %rax,%rdi
  40338d:	e8 9e e1 ff ff       	callq  401530 <_ZNSaIcED1Ev@plt>
  403392:	48 89 d8             	mov    %rbx,%rax
  403395:	48 89 c7             	mov    %rax,%rdi
  403398:	e8 d3 e2 ff ff       	callq  401670 <_Unwind_Resume@plt>
  40339d:	48 89 c3             	mov    %rax,%rbx
  4033a0:	48 8d 45 c0          	lea    -0x40(%rbp),%rax
  4033a4:	48 89 c7             	mov    %rax,%rdi
  4033a7:	e8 24 e1 ff ff       	callq  4014d0 <_ZNSt7__cxx1112basic_stringIcSt11char_traitsIcESaIcEED1Ev@plt>
  4033ac:	eb 03                	jmp    4033b1 <_Z17form_student_listv+0x1c0b>
  4033ae:	48 89 c3             	mov    %rax,%rbx
  4033b1:	48 8d 45 bf          	lea    -0x41(%rbp),%rax
  4033b5:	48 89 c7             	mov    %rax,%rdi
  4033b8:	e8 73 e1 ff ff       	callq  401530 <_ZNSaIcED1Ev@plt>
  4033bd:	48 89 d8             	mov    %rbx,%rax
  4033c0:	48 89 c7             	mov    %rax,%rdi
  4033c3:	e8 a8 e2 ff ff       	callq  401670 <_Unwind_Resume@plt>
  4033c8:	48 89 c3             	mov    %rax,%rbx
  4033cb:	48 8d 45 c0          	lea    -0x40(%rbp),%rax
  4033cf:	48 89 c7             	mov    %rax,%rdi
  4033d2:	e8 f9 e0 ff ff       	callq  4014d0 <_ZNSt7__cxx1112basic_stringIcSt11char_traitsIcESaIcEED1Ev@plt>
  4033d7:	eb 03                	jmp    4033dc <_Z17form_student_listv+0x1c36>
  4033d9:	48 89 c3             	mov    %rax,%rbx
  4033dc:	48 8d 45 bf          	lea    -0x41(%rbp),%rax
  4033e0:	48 89 c7             	mov    %rax,%rdi
  4033e3:	e8 48 e1 ff ff       	callq  401530 <_ZNSaIcED1Ev@plt>
  4033e8:	48 89 d8             	mov    %rbx,%rax
  4033eb:	48 89 c7             	mov    %rax,%rdi
  4033ee:	e8 7d e2 ff ff       	callq  401670 <_Unwind_Resume@plt>
  4033f3:	48 89 c3             	mov    %rax,%rbx
  4033f6:	48 8d 45 c0          	lea    -0x40(%rbp),%rax
  4033fa:	48 89 c7             	mov    %rax,%rdi
  4033fd:	e8 ce e0 ff ff       	callq  4014d0 <_ZNSt7__cxx1112basic_stringIcSt11char_traitsIcESaIcEED1Ev@plt>
  403402:	eb 03                	jmp    403407 <_Z17form_student_listv+0x1c61>
  403404:	48 89 c3             	mov    %rax,%rbx
  403407:	48 8d 45 bf          	lea    -0x41(%rbp),%rax
  40340b:	48 89 c7             	mov    %rax,%rdi
  40340e:	e8 1d e1 ff ff       	callq  401530 <_ZNSaIcED1Ev@plt>
  403413:	48 89 d8             	mov    %rbx,%rax
  403416:	48 89 c7             	mov    %rax,%rdi
  403419:	e8 52 e2 ff ff       	callq  401670 <_Unwind_Resume@plt>
  40341e:	48 89 c3             	mov    %rax,%rbx
  403421:	48 8d 45 c0          	lea    -0x40(%rbp),%rax
  403425:	48 89 c7             	mov    %rax,%rdi
  403428:	e8 a3 e0 ff ff       	callq  4014d0 <_ZNSt7__cxx1112basic_stringIcSt11char_traitsIcESaIcEED1Ev@plt>
  40342d:	eb 03                	jmp    403432 <_Z17form_student_listv+0x1c8c>
  40342f:	48 89 c3             	mov    %rax,%rbx
  403432:	48 8d 45 bf          	lea    -0x41(%rbp),%rax
  403436:	48 89 c7             	mov    %rax,%rdi
  403439:	e8 f2 e0 ff ff       	callq  401530 <_ZNSaIcED1Ev@plt>
  40343e:	48 89 d8             	mov    %rbx,%rax
  403441:	48 89 c7             	mov    %rax,%rdi
  403444:	e8 27 e2 ff ff       	callq  401670 <_Unwind_Resume@plt>
  403449:	48 89 c3             	mov    %rax,%rbx
  40344c:	48 8d 45 c0          	lea    -0x40(%rbp),%rax
  403450:	48 89 c7             	mov    %rax,%rdi
  403453:	e8 78 e0 ff ff       	callq  4014d0 <_ZNSt7__cxx1112basic_stringIcSt11char_traitsIcESaIcEED1Ev@plt>
  403458:	eb 03                	jmp    40345d <_Z17form_student_listv+0x1cb7>
  40345a:	48 89 c3             	mov    %rax,%rbx
  40345d:	48 8d 45 bf          	lea    -0x41(%rbp),%rax
  403461:	48 89 c7             	mov    %rax,%rdi
  403464:	e8 c7 e0 ff ff       	callq  401530 <_ZNSaIcED1Ev@plt>
  403469:	48 89 d8             	mov    %rbx,%rax
  40346c:	48 89 c7             	mov    %rax,%rdi
  40346f:	e8 fc e1 ff ff       	callq  401670 <_Unwind_Resume@plt>
  403474:	48 89 c3             	mov    %rax,%rbx
  403477:	48 8d 45 c0          	lea    -0x40(%rbp),%rax
  40347b:	48 89 c7             	mov    %rax,%rdi
  40347e:	e8 4d e0 ff ff       	callq  4014d0 <_ZNSt7__cxx1112basic_stringIcSt11char_traitsIcESaIcEED1Ev@plt>
  403483:	eb 03                	jmp    403488 <_Z17form_student_listv+0x1ce2>
  403485:	48 89 c3             	mov    %rax,%rbx
  403488:	48 8d 45 bf          	lea    -0x41(%rbp),%rax
  40348c:	48 89 c7             	mov    %rax,%rdi
  40348f:	e8 9c e0 ff ff       	callq  401530 <_ZNSaIcED1Ev@plt>
  403494:	48 89 d8             	mov    %rbx,%rax
  403497:	48 89 c7             	mov    %rax,%rdi
  40349a:	e8 d1 e1 ff ff       	callq  401670 <_Unwind_Resume@plt>
  40349f:	48 89 c3             	mov    %rax,%rbx
  4034a2:	48 8d 45 c0          	lea    -0x40(%rbp),%rax
  4034a6:	48 89 c7             	mov    %rax,%rdi
  4034a9:	e8 22 e0 ff ff       	callq  4014d0 <_ZNSt7__cxx1112basic_stringIcSt11char_traitsIcESaIcEED1Ev@plt>
  4034ae:	eb 03                	jmp    4034b3 <_Z17form_student_listv+0x1d0d>
  4034b0:	48 89 c3             	mov    %rax,%rbx
  4034b3:	48 8d 45 bf          	lea    -0x41(%rbp),%rax
  4034b7:	48 89 c7             	mov    %rax,%rdi
  4034ba:	e8 71 e0 ff ff       	callq  401530 <_ZNSaIcED1Ev@plt>
  4034bf:	48 89 d8             	mov    %rbx,%rax
  4034c2:	48 89 c7             	mov    %rax,%rdi
  4034c5:	e8 a6 e1 ff ff       	callq  401670 <_Unwind_Resume@plt>
  4034ca:	48 89 c3             	mov    %rax,%rbx
  4034cd:	48 8d 45 c0          	lea    -0x40(%rbp),%rax
  4034d1:	48 89 c7             	mov    %rax,%rdi
  4034d4:	e8 f7 df ff ff       	callq  4014d0 <_ZNSt7__cxx1112basic_stringIcSt11char_traitsIcESaIcEED1Ev@plt>
  4034d9:	eb 03                	jmp    4034de <_Z17form_student_listv+0x1d38>
  4034db:	48 89 c3             	mov    %rax,%rbx
  4034de:	48 8d 45 bf          	lea    -0x41(%rbp),%rax
  4034e2:	48 89 c7             	mov    %rax,%rdi
  4034e5:	e8 46 e0 ff ff       	callq  401530 <_ZNSaIcED1Ev@plt>
  4034ea:	48 89 d8             	mov    %rbx,%rax
  4034ed:	48 89 c7             	mov    %rax,%rdi
  4034f0:	e8 7b e1 ff ff       	callq  401670 <_Unwind_Resume@plt>
  4034f5:	48 89 c3             	mov    %rax,%rbx
  4034f8:	48 8d 45 c0          	lea    -0x40(%rbp),%rax
  4034fc:	48 89 c7             	mov    %rax,%rdi
  4034ff:	e8 cc df ff ff       	callq  4014d0 <_ZNSt7__cxx1112basic_stringIcSt11char_traitsIcESaIcEED1Ev@plt>
  403504:	eb 03                	jmp    403509 <_Z17form_student_listv+0x1d63>
  403506:	48 89 c3             	mov    %rax,%rbx
  403509:	48 8d 45 bf          	lea    -0x41(%rbp),%rax
  40350d:	48 89 c7             	mov    %rax,%rdi
  403510:	e8 1b e0 ff ff       	callq  401530 <_ZNSaIcED1Ev@plt>
  403515:	48 89 d8             	mov    %rbx,%rax
  403518:	48 89 c7             	mov    %rax,%rdi
  40351b:	e8 50 e1 ff ff       	callq  401670 <_Unwind_Resume@plt>
  403520:	48 89 c3             	mov    %rax,%rbx
  403523:	48 8d 45 c0          	lea    -0x40(%rbp),%rax
  403527:	48 89 c7             	mov    %rax,%rdi
  40352a:	e8 a1 df ff ff       	callq  4014d0 <_ZNSt7__cxx1112basic_stringIcSt11char_traitsIcESaIcEED1Ev@plt>
  40352f:	eb 03                	jmp    403534 <_Z17form_student_listv+0x1d8e>
  403531:	48 89 c3             	mov    %rax,%rbx
  403534:	48 8d 45 bf          	lea    -0x41(%rbp),%rax
  403538:	48 89 c7             	mov    %rax,%rdi
  40353b:	e8 f0 df ff ff       	callq  401530 <_ZNSaIcED1Ev@plt>
  403540:	48 89 d8             	mov    %rbx,%rax
  403543:	48 89 c7             	mov    %rax,%rdi
  403546:	e8 25 e1 ff ff       	callq  401670 <_Unwind_Resume@plt>
  40354b:	48 89 c3             	mov    %rax,%rbx
  40354e:	48 8d 45 c0          	lea    -0x40(%rbp),%rax
  403552:	48 89 c7             	mov    %rax,%rdi
  403555:	e8 76 df ff ff       	callq  4014d0 <_ZNSt7__cxx1112basic_stringIcSt11char_traitsIcESaIcEED1Ev@plt>
  40355a:	eb 03                	jmp    40355f <_Z17form_student_listv+0x1db9>
  40355c:	48 89 c3             	mov    %rax,%rbx
  40355f:	48 8d 45 bf          	lea    -0x41(%rbp),%rax
  403563:	48 89 c7             	mov    %rax,%rdi
  403566:	e8 c5 df ff ff       	callq  401530 <_ZNSaIcED1Ev@plt>
  40356b:	48 89 d8             	mov    %rbx,%rax
  40356e:	48 89 c7             	mov    %rax,%rdi
  403571:	e8 fa e0 ff ff       	callq  401670 <_Unwind_Resume@plt>
  403576:	48 89 c3             	mov    %rax,%rbx
  403579:	48 8d 45 c0          	lea    -0x40(%rbp),%rax
  40357d:	48 89 c7             	mov    %rax,%rdi
  403580:	e8 4b df ff ff       	callq  4014d0 <_ZNSt7__cxx1112basic_stringIcSt11char_traitsIcESaIcEED1Ev@plt>
  403585:	eb 03                	jmp    40358a <_Z17form_student_listv+0x1de4>
  403587:	48 89 c3             	mov    %rax,%rbx
  40358a:	48 8d 45 bf          	lea    -0x41(%rbp),%rax
  40358e:	48 89 c7             	mov    %rax,%rdi
  403591:	e8 9a df ff ff       	callq  401530 <_ZNSaIcED1Ev@plt>
  403596:	48 89 d8             	mov    %rbx,%rax
  403599:	48 89 c7             	mov    %rax,%rdi
  40359c:	e8 cf e0 ff ff       	callq  401670 <_Unwind_Resume@plt>
  4035a1:	48 89 c3             	mov    %rax,%rbx
  4035a4:	48 8d 45 c0          	lea    -0x40(%rbp),%rax
  4035a8:	48 89 c7             	mov    %rax,%rdi
  4035ab:	e8 20 df ff ff       	callq  4014d0 <_ZNSt7__cxx1112basic_stringIcSt11char_traitsIcESaIcEED1Ev@plt>
  4035b0:	eb 03                	jmp    4035b5 <_Z17form_student_listv+0x1e0f>
  4035b2:	48 89 c3             	mov    %rax,%rbx
  4035b5:	48 8d 45 bf          	lea    -0x41(%rbp),%rax
  4035b9:	48 89 c7             	mov    %rax,%rdi
  4035bc:	e8 6f df ff ff       	callq  401530 <_ZNSaIcED1Ev@plt>
  4035c1:	48 89 d8             	mov    %rbx,%rax
  4035c4:	48 89 c7             	mov    %rax,%rdi
  4035c7:	e8 a4 e0 ff ff       	callq  401670 <_Unwind_Resume@plt>
  4035cc:	48 89 c3             	mov    %rax,%rbx
  4035cf:	48 8d 45 c0          	lea    -0x40(%rbp),%rax
  4035d3:	48 89 c7             	mov    %rax,%rdi
  4035d6:	e8 f5 de ff ff       	callq  4014d0 <_ZNSt7__cxx1112basic_stringIcSt11char_traitsIcESaIcEED1Ev@plt>
  4035db:	eb 03                	jmp    4035e0 <_Z17form_student_listv+0x1e3a>
  4035dd:	48 89 c3             	mov    %rax,%rbx
  4035e0:	48 8d 45 bf          	lea    -0x41(%rbp),%rax
  4035e4:	48 89 c7             	mov    %rax,%rdi
  4035e7:	e8 44 df ff ff       	callq  401530 <_ZNSaIcED1Ev@plt>
  4035ec:	48 89 d8             	mov    %rbx,%rax
  4035ef:	48 89 c7             	mov    %rax,%rdi
  4035f2:	e8 79 e0 ff ff       	callq  401670 <_Unwind_Resume@plt>
  4035f7:	48 89 c3             	mov    %rax,%rbx
  4035fa:	48 8d 45 c0          	lea    -0x40(%rbp),%rax
  4035fe:	48 89 c7             	mov    %rax,%rdi
  403601:	e8 ca de ff ff       	callq  4014d0 <_ZNSt7__cxx1112basic_stringIcSt11char_traitsIcESaIcEED1Ev@plt>
  403606:	eb 03                	jmp    40360b <_Z17form_student_listv+0x1e65>
  403608:	48 89 c3             	mov    %rax,%rbx
  40360b:	48 8d 45 bf          	lea    -0x41(%rbp),%rax
  40360f:	48 89 c7             	mov    %rax,%rdi
  403612:	e8 19 df ff ff       	callq  401530 <_ZNSaIcED1Ev@plt>
  403617:	48 89 d8             	mov    %rbx,%rax
  40361a:	48 89 c7             	mov    %rax,%rdi
  40361d:	e8 4e e0 ff ff       	callq  401670 <_Unwind_Resume@plt>
  403622:	48 89 c3             	mov    %rax,%rbx
  403625:	48 8d 45 c0          	lea    -0x40(%rbp),%rax
  403629:	48 89 c7             	mov    %rax,%rdi
  40362c:	e8 9f de ff ff       	callq  4014d0 <_ZNSt7__cxx1112basic_stringIcSt11char_traitsIcESaIcEED1Ev@plt>
  403631:	eb 03                	jmp    403636 <_Z17form_student_listv+0x1e90>
  403633:	48 89 c3             	mov    %rax,%rbx
  403636:	48 8d 45 bf          	lea    -0x41(%rbp),%rax
  40363a:	48 89 c7             	mov    %rax,%rdi
  40363d:	e8 ee de ff ff       	callq  401530 <_ZNSaIcED1Ev@plt>
  403642:	48 89 d8             	mov    %rbx,%rax
  403645:	48 89 c7             	mov    %rax,%rdi
  403648:	e8 23 e0 ff ff       	callq  401670 <_Unwind_Resume@plt>
  40364d:	48 89 c3             	mov    %rax,%rbx
  403650:	48 8d 45 c0          	lea    -0x40(%rbp),%rax
  403654:	48 89 c7             	mov    %rax,%rdi
  403657:	e8 74 de ff ff       	callq  4014d0 <_ZNSt7__cxx1112basic_stringIcSt11char_traitsIcESaIcEED1Ev@plt>
  40365c:	eb 03                	jmp    403661 <_Z17form_student_listv+0x1ebb>
  40365e:	48 89 c3             	mov    %rax,%rbx
  403661:	48 8d 45 bf          	lea    -0x41(%rbp),%rax
  403665:	48 89 c7             	mov    %rax,%rdi
  403668:	e8 c3 de ff ff       	callq  401530 <_ZNSaIcED1Ev@plt>
  40366d:	48 89 d8             	mov    %rbx,%rax
  403670:	48 89 c7             	mov    %rax,%rdi
  403673:	e8 f8 df ff ff       	callq  401670 <_Unwind_Resume@plt>
  403678:	48 89 c3             	mov    %rax,%rbx
  40367b:	48 8d 45 c0          	lea    -0x40(%rbp),%rax
  40367f:	48 89 c7             	mov    %rax,%rdi
  403682:	e8 49 de ff ff       	callq  4014d0 <_ZNSt7__cxx1112basic_stringIcSt11char_traitsIcESaIcEED1Ev@plt>
  403687:	eb 03                	jmp    40368c <_Z17form_student_listv+0x1ee6>
  403689:	48 89 c3             	mov    %rax,%rbx
  40368c:	48 8d 45 bf          	lea    -0x41(%rbp),%rax
  403690:	48 89 c7             	mov    %rax,%rdi
  403693:	e8 98 de ff ff       	callq  401530 <_ZNSaIcED1Ev@plt>
  403698:	48 89 d8             	mov    %rbx,%rax
  40369b:	48 89 c7             	mov    %rax,%rdi
  40369e:	e8 cd df ff ff       	callq  401670 <_Unwind_Resume@plt>
  4036a3:	48 89 c3             	mov    %rax,%rbx
  4036a6:	48 8d 45 c0          	lea    -0x40(%rbp),%rax
  4036aa:	48 89 c7             	mov    %rax,%rdi
  4036ad:	e8 1e de ff ff       	callq  4014d0 <_ZNSt7__cxx1112basic_stringIcSt11char_traitsIcESaIcEED1Ev@plt>
  4036b2:	eb 03                	jmp    4036b7 <_Z17form_student_listv+0x1f11>
  4036b4:	48 89 c3             	mov    %rax,%rbx
  4036b7:	48 8d 45 bf          	lea    -0x41(%rbp),%rax
  4036bb:	48 89 c7             	mov    %rax,%rdi
  4036be:	e8 6d de ff ff       	callq  401530 <_ZNSaIcED1Ev@plt>
  4036c3:	48 89 d8             	mov    %rbx,%rax
  4036c6:	48 89 c7             	mov    %rax,%rdi
  4036c9:	e8 a2 df ff ff       	callq  401670 <_Unwind_Resume@plt>
  4036ce:	48 89 c3             	mov    %rax,%rbx
  4036d1:	48 8d 45 c0          	lea    -0x40(%rbp),%rax
  4036d5:	48 89 c7             	mov    %rax,%rdi
  4036d8:	e8 f3 dd ff ff       	callq  4014d0 <_ZNSt7__cxx1112basic_stringIcSt11char_traitsIcESaIcEED1Ev@plt>
  4036dd:	eb 03                	jmp    4036e2 <_Z17form_student_listv+0x1f3c>
  4036df:	48 89 c3             	mov    %rax,%rbx
  4036e2:	48 8d 45 bf          	lea    -0x41(%rbp),%rax
  4036e6:	48 89 c7             	mov    %rax,%rdi
  4036e9:	e8 42 de ff ff       	callq  401530 <_ZNSaIcED1Ev@plt>
  4036ee:	48 89 d8             	mov    %rbx,%rax
  4036f1:	48 89 c7             	mov    %rax,%rdi
  4036f4:	e8 77 df ff ff       	callq  401670 <_Unwind_Resume@plt>
  4036f9:	48 89 c3             	mov    %rax,%rbx
  4036fc:	48 8d 45 c0          	lea    -0x40(%rbp),%rax
  403700:	48 89 c7             	mov    %rax,%rdi
  403703:	e8 c8 dd ff ff       	callq  4014d0 <_ZNSt7__cxx1112basic_stringIcSt11char_traitsIcESaIcEED1Ev@plt>
  403708:	eb 03                	jmp    40370d <_Z17form_student_listv+0x1f67>
  40370a:	48 89 c3             	mov    %rax,%rbx
  40370d:	48 8d 45 bf          	lea    -0x41(%rbp),%rax
  403711:	48 89 c7             	mov    %rax,%rdi
  403714:	e8 17 de ff ff       	callq  401530 <_ZNSaIcED1Ev@plt>
  403719:	48 89 d8             	mov    %rbx,%rax
  40371c:	48 89 c7             	mov    %rax,%rdi
  40371f:	e8 4c df ff ff       	callq  401670 <_Unwind_Resume@plt>
  403724:	48 89 c3             	mov    %rax,%rbx
  403727:	48 8d 45 c0          	lea    -0x40(%rbp),%rax
  40372b:	48 89 c7             	mov    %rax,%rdi
  40372e:	e8 9d dd ff ff       	callq  4014d0 <_ZNSt7__cxx1112basic_stringIcSt11char_traitsIcESaIcEED1Ev@plt>
  403733:	eb 03                	jmp    403738 <_Z17form_student_listv+0x1f92>
  403735:	48 89 c3             	mov    %rax,%rbx
  403738:	48 8d 45 bf          	lea    -0x41(%rbp),%rax
  40373c:	48 89 c7             	mov    %rax,%rdi
  40373f:	e8 ec dd ff ff       	callq  401530 <_ZNSaIcED1Ev@plt>
  403744:	48 89 d8             	mov    %rbx,%rax
  403747:	48 89 c7             	mov    %rax,%rdi
  40374a:	e8 21 df ff ff       	callq  401670 <_Unwind_Resume@plt>
  40374f:	48 89 c3             	mov    %rax,%rbx
  403752:	48 8d 45 c0          	lea    -0x40(%rbp),%rax
  403756:	48 89 c7             	mov    %rax,%rdi
  403759:	e8 72 dd ff ff       	callq  4014d0 <_ZNSt7__cxx1112basic_stringIcSt11char_traitsIcESaIcEED1Ev@plt>
  40375e:	eb 03                	jmp    403763 <_Z17form_student_listv+0x1fbd>
  403760:	48 89 c3             	mov    %rax,%rbx
  403763:	48 8d 45 bf          	lea    -0x41(%rbp),%rax
  403767:	48 89 c7             	mov    %rax,%rdi
  40376a:	e8 c1 dd ff ff       	callq  401530 <_ZNSaIcED1Ev@plt>
  40376f:	48 89 d8             	mov    %rbx,%rax
  403772:	48 89 c7             	mov    %rax,%rdi
  403775:	e8 f6 de ff ff       	callq  401670 <_Unwind_Resume@plt>
  40377a:	48 89 c3             	mov    %rax,%rbx
  40377d:	48 8d 45 c0          	lea    -0x40(%rbp),%rax
  403781:	48 89 c7             	mov    %rax,%rdi
  403784:	e8 47 dd ff ff       	callq  4014d0 <_ZNSt7__cxx1112basic_stringIcSt11char_traitsIcESaIcEED1Ev@plt>
  403789:	eb 03                	jmp    40378e <_Z17form_student_listv+0x1fe8>
  40378b:	48 89 c3             	mov    %rax,%rbx
  40378e:	48 8d 45 bf          	lea    -0x41(%rbp),%rax
  403792:	48 89 c7             	mov    %rax,%rdi
  403795:	e8 96 dd ff ff       	callq  401530 <_ZNSaIcED1Ev@plt>
  40379a:	48 89 d8             	mov    %rbx,%rax
  40379d:	48 89 c7             	mov    %rax,%rdi
  4037a0:	e8 cb de ff ff       	callq  401670 <_Unwind_Resume@plt>
  4037a5:	48 89 c3             	mov    %rax,%rbx
  4037a8:	48 8d 45 c0          	lea    -0x40(%rbp),%rax
  4037ac:	48 89 c7             	mov    %rax,%rdi
  4037af:	e8 1c dd ff ff       	callq  4014d0 <_ZNSt7__cxx1112basic_stringIcSt11char_traitsIcESaIcEED1Ev@plt>
  4037b4:	eb 03                	jmp    4037b9 <_Z17form_student_listv+0x2013>
  4037b6:	48 89 c3             	mov    %rax,%rbx
  4037b9:	48 8d 45 bf          	lea    -0x41(%rbp),%rax
  4037bd:	48 89 c7             	mov    %rax,%rdi
  4037c0:	e8 6b dd ff ff       	callq  401530 <_ZNSaIcED1Ev@plt>
  4037c5:	48 89 d8             	mov    %rbx,%rax
  4037c8:	48 89 c7             	mov    %rax,%rdi
  4037cb:	e8 a0 de ff ff       	callq  401670 <_Unwind_Resume@plt>
  4037d0:	48 89 c3             	mov    %rax,%rbx
  4037d3:	48 8d 45 c0          	lea    -0x40(%rbp),%rax
  4037d7:	48 89 c7             	mov    %rax,%rdi
  4037da:	e8 f1 dc ff ff       	callq  4014d0 <_ZNSt7__cxx1112basic_stringIcSt11char_traitsIcESaIcEED1Ev@plt>
  4037df:	eb 03                	jmp    4037e4 <_Z17form_student_listv+0x203e>
  4037e1:	48 89 c3             	mov    %rax,%rbx
  4037e4:	48 8d 45 bf          	lea    -0x41(%rbp),%rax
  4037e8:	48 89 c7             	mov    %rax,%rdi
  4037eb:	e8 40 dd ff ff       	callq  401530 <_ZNSaIcED1Ev@plt>
  4037f0:	48 89 d8             	mov    %rbx,%rax
  4037f3:	48 89 c7             	mov    %rax,%rdi
  4037f6:	e8 75 de ff ff       	callq  401670 <_Unwind_Resume@plt>
  4037fb:	48 89 c3             	mov    %rax,%rbx
  4037fe:	48 8d 45 c0          	lea    -0x40(%rbp),%rax
  403802:	48 89 c7             	mov    %rax,%rdi
  403805:	e8 c6 dc ff ff       	callq  4014d0 <_ZNSt7__cxx1112basic_stringIcSt11char_traitsIcESaIcEED1Ev@plt>
  40380a:	eb 03                	jmp    40380f <_Z17form_student_listv+0x2069>
  40380c:	48 89 c3             	mov    %rax,%rbx
  40380f:	48 8d 45 bf          	lea    -0x41(%rbp),%rax
  403813:	48 89 c7             	mov    %rax,%rdi
  403816:	e8 15 dd ff ff       	callq  401530 <_ZNSaIcED1Ev@plt>
  40381b:	48 89 d8             	mov    %rbx,%rax
  40381e:	48 89 c7             	mov    %rax,%rdi
  403821:	e8 4a de ff ff       	callq  401670 <_Unwind_Resume@plt>
  403826:	48 89 c3             	mov    %rax,%rbx
  403829:	48 8d 45 c0          	lea    -0x40(%rbp),%rax
  40382d:	48 89 c7             	mov    %rax,%rdi
  403830:	e8 9b dc ff ff       	callq  4014d0 <_ZNSt7__cxx1112basic_stringIcSt11char_traitsIcESaIcEED1Ev@plt>
  403835:	eb 03                	jmp    40383a <_Z17form_student_listv+0x2094>
  403837:	48 89 c3             	mov    %rax,%rbx
  40383a:	48 8d 45 bf          	lea    -0x41(%rbp),%rax
  40383e:	48 89 c7             	mov    %rax,%rdi
  403841:	e8 ea dc ff ff       	callq  401530 <_ZNSaIcED1Ev@plt>
  403846:	48 89 d8             	mov    %rbx,%rax
  403849:	48 89 c7             	mov    %rax,%rdi
  40384c:	e8 1f de ff ff       	callq  401670 <_Unwind_Resume@plt>
  403851:	48 89 c3             	mov    %rax,%rbx
  403854:	48 8d 45 c0          	lea    -0x40(%rbp),%rax
  403858:	48 89 c7             	mov    %rax,%rdi
  40385b:	e8 70 dc ff ff       	callq  4014d0 <_ZNSt7__cxx1112basic_stringIcSt11char_traitsIcESaIcEED1Ev@plt>
  403860:	eb 03                	jmp    403865 <_Z17form_student_listv+0x20bf>
  403862:	48 89 c3             	mov    %rax,%rbx
  403865:	48 8d 45 bf          	lea    -0x41(%rbp),%rax
  403869:	48 89 c7             	mov    %rax,%rdi
  40386c:	e8 bf dc ff ff       	callq  401530 <_ZNSaIcED1Ev@plt>
  403871:	48 89 d8             	mov    %rbx,%rax
  403874:	48 89 c7             	mov    %rax,%rdi
  403877:	e8 f4 dd ff ff       	callq  401670 <_Unwind_Resume@plt>
  40387c:	48 89 c3             	mov    %rax,%rbx
  40387f:	48 8d 45 c0          	lea    -0x40(%rbp),%rax
  403883:	48 89 c7             	mov    %rax,%rdi
  403886:	e8 45 dc ff ff       	callq  4014d0 <_ZNSt7__cxx1112basic_stringIcSt11char_traitsIcESaIcEED1Ev@plt>
  40388b:	eb 03                	jmp    403890 <_Z17form_student_listv+0x20ea>
  40388d:	48 89 c3             	mov    %rax,%rbx
  403890:	48 8d 45 bf          	lea    -0x41(%rbp),%rax
  403894:	48 89 c7             	mov    %rax,%rdi
  403897:	e8 94 dc ff ff       	callq  401530 <_ZNSaIcED1Ev@plt>
  40389c:	48 89 d8             	mov    %rbx,%rax
  40389f:	48 89 c7             	mov    %rax,%rdi
  4038a2:	e8 c9 dd ff ff       	callq  401670 <_Unwind_Resume@plt>
  4038a7:	48 89 c3             	mov    %rax,%rbx
  4038aa:	48 8d 45 c0          	lea    -0x40(%rbp),%rax
  4038ae:	48 89 c7             	mov    %rax,%rdi
  4038b1:	e8 1a dc ff ff       	callq  4014d0 <_ZNSt7__cxx1112basic_stringIcSt11char_traitsIcESaIcEED1Ev@plt>
  4038b6:	eb 03                	jmp    4038bb <_Z17form_student_listv+0x2115>
  4038b8:	48 89 c3             	mov    %rax,%rbx
  4038bb:	48 8d 45 bf          	lea    -0x41(%rbp),%rax
  4038bf:	48 89 c7             	mov    %rax,%rdi
  4038c2:	e8 69 dc ff ff       	callq  401530 <_ZNSaIcED1Ev@plt>
  4038c7:	48 89 d8             	mov    %rbx,%rax
  4038ca:	48 89 c7             	mov    %rax,%rdi
  4038cd:	e8 9e dd ff ff       	callq  401670 <_Unwind_Resume@plt>
  4038d2:	48 89 c3             	mov    %rax,%rbx
  4038d5:	48 8d 45 c0          	lea    -0x40(%rbp),%rax
  4038d9:	48 89 c7             	mov    %rax,%rdi
  4038dc:	e8 ef db ff ff       	callq  4014d0 <_ZNSt7__cxx1112basic_stringIcSt11char_traitsIcESaIcEED1Ev@plt>
  4038e1:	eb 03                	jmp    4038e6 <_Z17form_student_listv+0x2140>
  4038e3:	48 89 c3             	mov    %rax,%rbx
  4038e6:	48 8d 45 bf          	lea    -0x41(%rbp),%rax
  4038ea:	48 89 c7             	mov    %rax,%rdi
  4038ed:	e8 3e dc ff ff       	callq  401530 <_ZNSaIcED1Ev@plt>
  4038f2:	48 89 d8             	mov    %rbx,%rax
  4038f5:	48 89 c7             	mov    %rax,%rdi
  4038f8:	e8 73 dd ff ff       	callq  401670 <_Unwind_Resume@plt>
  4038fd:	48 89 c3             	mov    %rax,%rbx
  403900:	48 8d 45 c0          	lea    -0x40(%rbp),%rax
  403904:	48 89 c7             	mov    %rax,%rdi
  403907:	e8 c4 db ff ff       	callq  4014d0 <_ZNSt7__cxx1112basic_stringIcSt11char_traitsIcESaIcEED1Ev@plt>
  40390c:	eb 03                	jmp    403911 <_Z17form_student_listv+0x216b>
  40390e:	48 89 c3             	mov    %rax,%rbx
  403911:	48 8d 45 bf          	lea    -0x41(%rbp),%rax
  403915:	48 89 c7             	mov    %rax,%rdi
  403918:	e8 13 dc ff ff       	callq  401530 <_ZNSaIcED1Ev@plt>
  40391d:	48 89 d8             	mov    %rbx,%rax
  403920:	48 89 c7             	mov    %rax,%rdi
  403923:	e8 48 dd ff ff       	callq  401670 <_Unwind_Resume@plt>
  403928:	48 89 c3             	mov    %rax,%rbx
  40392b:	48 8d 45 c0          	lea    -0x40(%rbp),%rax
  40392f:	48 89 c7             	mov    %rax,%rdi
  403932:	e8 99 db ff ff       	callq  4014d0 <_ZNSt7__cxx1112basic_stringIcSt11char_traitsIcESaIcEED1Ev@plt>
  403937:	eb 03                	jmp    40393c <_Z17form_student_listv+0x2196>
  403939:	48 89 c3             	mov    %rax,%rbx
  40393c:	48 8d 45 bf          	lea    -0x41(%rbp),%rax
  403940:	48 89 c7             	mov    %rax,%rdi
  403943:	e8 e8 db ff ff       	callq  401530 <_ZNSaIcED1Ev@plt>
  403948:	48 89 d8             	mov    %rbx,%rax
  40394b:	48 89 c7             	mov    %rax,%rdi
  40394e:	e8 1d dd ff ff       	callq  401670 <_Unwind_Resume@plt>
  403953:	48 89 c3             	mov    %rax,%rbx
  403956:	48 8d 45 c0          	lea    -0x40(%rbp),%rax
  40395a:	48 89 c7             	mov    %rax,%rdi
  40395d:	e8 6e db ff ff       	callq  4014d0 <_ZNSt7__cxx1112basic_stringIcSt11char_traitsIcESaIcEED1Ev@plt>
  403962:	eb 03                	jmp    403967 <_Z17form_student_listv+0x21c1>
  403964:	48 89 c3             	mov    %rax,%rbx
  403967:	48 8d 45 bf          	lea    -0x41(%rbp),%rax
  40396b:	48 89 c7             	mov    %rax,%rdi
  40396e:	e8 bd db ff ff       	callq  401530 <_ZNSaIcED1Ev@plt>
  403973:	48 89 d8             	mov    %rbx,%rax
  403976:	48 89 c7             	mov    %rax,%rdi
  403979:	e8 f2 dc ff ff       	callq  401670 <_Unwind_Resume@plt>
  40397e:	48 89 c3             	mov    %rax,%rbx
  403981:	48 8d 45 c0          	lea    -0x40(%rbp),%rax
  403985:	48 89 c7             	mov    %rax,%rdi
  403988:	e8 43 db ff ff       	callq  4014d0 <_ZNSt7__cxx1112basic_stringIcSt11char_traitsIcESaIcEED1Ev@plt>
  40398d:	eb 03                	jmp    403992 <_Z17form_student_listv+0x21ec>
  40398f:	48 89 c3             	mov    %rax,%rbx
  403992:	48 8d 45 bf          	lea    -0x41(%rbp),%rax
  403996:	48 89 c7             	mov    %rax,%rdi
  403999:	e8 92 db ff ff       	callq  401530 <_ZNSaIcED1Ev@plt>
  40399e:	48 89 d8             	mov    %rbx,%rax
  4039a1:	48 89 c7             	mov    %rax,%rdi
  4039a4:	e8 c7 dc ff ff       	callq  401670 <_Unwind_Resume@plt>
  4039a9:	e8 72 db ff ff       	callq  401520 <__stack_chk_fail@plt>
  4039ae:	48 83 c4 48          	add    $0x48,%rsp
  4039b2:	5b                   	pop    %rbx
  4039b3:	5d                   	pop    %rbp
  4039b4:	c3                   	retq   

00000000004039b5 <_Z16check_student_idNSt7__cxx1112basic_stringIcSt11char_traitsIcESaIcEEE>:
  4039b5:	55                   	push   %rbp
  4039b6:	48 89 e5             	mov    %rsp,%rbp
  4039b9:	53                   	push   %rbx
  4039ba:	48 83 ec 28          	sub    $0x28,%rsp
  4039be:	48 89 7d d8          	mov    %rdi,-0x28(%rbp)
  4039c2:	c7 45 ec 00 00 00 00 	movl   $0x0,-0x14(%rbp)
  4039c9:	8b 45 ec             	mov    -0x14(%rbp),%eax
  4039cc:	48 63 d8             	movslq %eax,%rbx
  4039cf:	bf e0 73 60 00       	mov    $0x6073e0,%edi
  4039d4:	e8 17 0e 00 00       	callq  4047f0 <_ZNKSt6vectorINSt7__cxx1112basic_stringIcSt11char_traitsIcESaIcEEESaIS5_EE4sizeEv>
  4039d9:	48 39 c3             	cmp    %rax,%rbx
  4039dc:	0f 92 c0             	setb   %al
  4039df:	84 c0                	test   %al,%al
  4039e1:	74 35                	je     403a18 <_Z16check_student_idNSt7__cxx1112basic_stringIcSt11char_traitsIcESaIcEEE+0x63>
  4039e3:	8b 45 ec             	mov    -0x14(%rbp),%eax
  4039e6:	48 98                	cltq   
  4039e8:	48 89 c6             	mov    %rax,%rsi
  4039eb:	bf e0 73 60 00       	mov    $0x6073e0,%edi
  4039f0:	e8 21 0e 00 00       	callq  404816 <_ZNSt6vectorINSt7__cxx1112basic_stringIcSt11char_traitsIcESaIcEEESaIS5_EEixEm>
  4039f5:	48 89 c2             	mov    %rax,%rdx
  4039f8:	48 8b 45 d8          	mov    -0x28(%rbp),%rax
  4039fc:	48 89 c6             	mov    %rax,%rsi
  4039ff:	48 89 d7             	mov    %rdx,%rdi
  403a02:	e8 2f 0e 00 00       	callq  404836 <_ZSteqIcEN9__gnu_cxx11__enable_ifIXsrSt9__is_charIT_E7__valueEbE6__typeERKNSt7__cxx1112basic_stringIS3_St11char_traitsIS3_ESaIS3_EEESE_>
  403a07:	84 c0                	test   %al,%al
  403a09:	74 07                	je     403a12 <_Z16check_student_idNSt7__cxx1112basic_stringIcSt11char_traitsIcESaIcEEE+0x5d>
  403a0b:	b8 01 00 00 00       	mov    $0x1,%eax
  403a10:	eb 0b                	jmp    403a1d <_Z16check_student_idNSt7__cxx1112basic_stringIcSt11char_traitsIcESaIcEEE+0x68>
  403a12:	83 45 ec 01          	addl   $0x1,-0x14(%rbp)
  403a16:	eb b1                	jmp    4039c9 <_Z16check_student_idNSt7__cxx1112basic_stringIcSt11char_traitsIcESaIcEEE+0x14>
  403a18:	b8 00 00 00 00       	mov    $0x0,%eax
  403a1d:	48 83 c4 28          	add    $0x28,%rsp
  403a21:	5b                   	pop    %rbx
  403a22:	5d                   	pop    %rbp
  403a23:	c3                   	retq   

0000000000403a24 <_Z13print_messagev>:
  403a24:	55                   	push   %rbp
  403a25:	48 89 e5             	mov    %rsp,%rbp
  403a28:	41 57                	push   %r15
  403a2a:	41 56                	push   %r14
  403a2c:	41 55                	push   %r13
  403a2e:	41 54                	push   %r12
  403a30:	53                   	push   %rbx
  403a31:	48 83 ec 38          	sub    $0x38,%rsp
  403a35:	64 48 8b 04 25 28 00 	mov    %fs:0x28,%rax
  403a3c:	00 00 
  403a3e:	48 89 45 c8          	mov    %rax,-0x38(%rbp)
  403a42:	31 c0                	xor    %eax,%eax
  403a44:	be 50 56 40 00       	mov    $0x405650,%esi
  403a49:	bf c0 72 60 00       	mov    $0x6072c0,%edi
  403a4e:	e8 4d da ff ff       	callq  4014a0 <_ZStlsISt11char_traitsIcEERSt13basic_ostreamIcT_ES5_PKc@plt>
  403a53:	be 98 56 40 00       	mov    $0x405698,%esi
  403a58:	bf c0 72 60 00       	mov    $0x6072c0,%edi
  403a5d:	e8 3e da ff ff       	callq  4014a0 <_ZStlsISt11char_traitsIcEERSt13basic_ostreamIcT_ES5_PKc@plt>
  403a62:	be d0 15 40 00       	mov    $0x4015d0,%esi
  403a67:	48 89 c7             	mov    %rax,%rdi
  403a6a:	e8 11 db ff ff       	callq  401580 <_ZNSolsEPFRSoS_E@plt>
  403a6f:	be e0 56 40 00       	mov    $0x4056e0,%esi
  403a74:	bf c0 72 60 00       	mov    $0x6072c0,%edi
  403a79:	e8 22 da ff ff       	callq  4014a0 <_ZStlsISt11char_traitsIcEERSt13basic_ostreamIcT_ES5_PKc@plt>
  403a7e:	be d0 15 40 00       	mov    $0x4015d0,%esi
  403a83:	48 89 c7             	mov    %rax,%rdi
  403a86:	e8 f5 da ff ff       	callq  401580 <_ZNSolsEPFRSoS_E@plt>
  403a8b:	be 28 57 40 00       	mov    $0x405728,%esi
  403a90:	bf c0 72 60 00       	mov    $0x6072c0,%edi
  403a95:	e8 06 da ff ff       	callq  4014a0 <_ZStlsISt11char_traitsIcEERSt13basic_ostreamIcT_ES5_PKc@plt>
  403a9a:	be d0 15 40 00       	mov    $0x4015d0,%esi
  403a9f:	48 89 c7             	mov    %rax,%rdi
  403aa2:	e8 d9 da ff ff       	callq  401580 <_ZNSolsEPFRSoS_E@plt>
  403aa7:	be 70 57 40 00       	mov    $0x405770,%esi
  403aac:	bf c0 72 60 00       	mov    $0x6072c0,%edi
  403ab1:	e8 ea d9 ff ff       	callq  4014a0 <_ZStlsISt11char_traitsIcEERSt13basic_ostreamIcT_ES5_PKc@plt>
  403ab6:	be d0 15 40 00       	mov    $0x4015d0,%esi
  403abb:	48 89 c7             	mov    %rax,%rdi
  403abe:	e8 bd da ff ff       	callq  401580 <_ZNSolsEPFRSoS_E@plt>
  403ac3:	be b8 57 40 00       	mov    $0x4057b8,%esi
  403ac8:	bf c0 72 60 00       	mov    $0x6072c0,%edi
  403acd:	e8 ce d9 ff ff       	callq  4014a0 <_ZStlsISt11char_traitsIcEERSt13basic_ostreamIcT_ES5_PKc@plt>
  403ad2:	be d0 15 40 00       	mov    $0x4015d0,%esi
  403ad7:	48 89 c7             	mov    %rax,%rdi
  403ada:	e8 a1 da ff ff       	callq  401580 <_ZNSolsEPFRSoS_E@plt>
  403adf:	be 00 58 40 00       	mov    $0x405800,%esi
  403ae4:	bf c0 72 60 00       	mov    $0x6072c0,%edi
  403ae9:	e8 b2 d9 ff ff       	callq  4014a0 <_ZStlsISt11char_traitsIcEERSt13basic_ostreamIcT_ES5_PKc@plt>
  403aee:	be d0 15 40 00       	mov    $0x4015d0,%esi
  403af3:	48 89 c7             	mov    %rax,%rdi
  403af6:	e8 85 da ff ff       	callq  401580 <_ZNSolsEPFRSoS_E@plt>
  403afb:	be 40 58 40 00       	mov    $0x405840,%esi
  403b00:	bf c0 72 60 00       	mov    $0x6072c0,%edi
  403b05:	e8 96 d9 ff ff       	callq  4014a0 <_ZStlsISt11char_traitsIcEERSt13basic_ostreamIcT_ES5_PKc@plt>
  403b0a:	be d0 15 40 00       	mov    $0x4015d0,%esi
  403b0f:	48 89 c7             	mov    %rax,%rdi
  403b12:	e8 69 da ff ff       	callq  401580 <_ZNSolsEPFRSoS_E@plt>
  403b17:	48 8d 45 b8          	lea    -0x48(%rbp),%rax
  403b1b:	48 89 c7             	mov    %rax,%rdi
  403b1e:	e8 6d db ff ff       	callq  401690 <time@plt>
  403b23:	48 8d 45 b8          	lea    -0x48(%rbp),%rax
  403b27:	48 89 c7             	mov    %rax,%rdi
  403b2a:	e8 21 db ff ff       	callq  401650 <localtime@plt>
  403b2f:	48 89 45 c0          	mov    %rax,-0x40(%rbp)
  403b33:	48 8b 45 c0          	mov    -0x40(%rbp),%rax
  403b37:	8b 18                	mov    (%rax),%ebx
  403b39:	48 8b 45 c0          	mov    -0x40(%rbp),%rax
  403b3d:	44 8b 60 04          	mov    0x4(%rax),%r12d
  403b41:	48 8b 45 c0          	mov    -0x40(%rbp),%rax
  403b45:	44 8b 68 08          	mov    0x8(%rax),%r13d
  403b49:	48 8b 45 c0          	mov    -0x40(%rbp),%rax
  403b4d:	44 8b 70 0c          	mov    0xc(%rax),%r14d
  403b51:	48 8b 45 c0          	mov    -0x40(%rbp),%rax
  403b55:	8b 40 10             	mov    0x10(%rax),%eax
  403b58:	44 8d 78 01          	lea    0x1(%rax),%r15d
  403b5c:	48 8b 45 c0          	mov    -0x40(%rbp),%rax
  403b60:	8b 40 14             	mov    0x14(%rax),%eax
  403b63:	05 6c 07 00 00       	add    $0x76c,%eax
  403b68:	89 45 ac             	mov    %eax,-0x54(%rbp)
  403b6b:	be 84 58 40 00       	mov    $0x405884,%esi
  403b70:	bf c0 72 60 00       	mov    $0x6072c0,%edi
  403b75:	e8 26 d9 ff ff       	callq  4014a0 <_ZStlsISt11char_traitsIcEERSt13basic_ostreamIcT_ES5_PKc@plt>
  403b7a:	8b 75 ac             	mov    -0x54(%rbp),%esi
  403b7d:	48 89 c7             	mov    %rax,%rdi
  403b80:	e8 5b d8 ff ff       	callq  4013e0 <_ZNSolsEi@plt>
  403b85:	be 94 58 40 00       	mov    $0x405894,%esi
  403b8a:	48 89 c7             	mov    %rax,%rdi
  403b8d:	e8 0e d9 ff ff       	callq  4014a0 <_ZStlsISt11char_traitsIcEERSt13basic_ostreamIcT_ES5_PKc@plt>
  403b92:	44 89 fe             	mov    %r15d,%esi
  403b95:	48 89 c7             	mov    %rax,%rdi
  403b98:	e8 43 d8 ff ff       	callq  4013e0 <_ZNSolsEi@plt>
  403b9d:	be 94 58 40 00       	mov    $0x405894,%esi
  403ba2:	48 89 c7             	mov    %rax,%rdi
  403ba5:	e8 f6 d8 ff ff       	callq  4014a0 <_ZStlsISt11char_traitsIcEERSt13basic_ostreamIcT_ES5_PKc@plt>
  403baa:	44 89 f6             	mov    %r14d,%esi
  403bad:	48 89 c7             	mov    %rax,%rdi
  403bb0:	e8 2b d8 ff ff       	callq  4013e0 <_ZNSolsEi@plt>
  403bb5:	be 96 58 40 00       	mov    $0x405896,%esi
  403bba:	48 89 c7             	mov    %rax,%rdi
  403bbd:	e8 de d8 ff ff       	callq  4014a0 <_ZStlsISt11char_traitsIcEERSt13basic_ostreamIcT_ES5_PKc@plt>
  403bc2:	44 89 ee             	mov    %r13d,%esi
  403bc5:	48 89 c7             	mov    %rax,%rdi
  403bc8:	e8 13 d8 ff ff       	callq  4013e0 <_ZNSolsEi@plt>
  403bcd:	be 99 58 40 00       	mov    $0x405899,%esi
  403bd2:	48 89 c7             	mov    %rax,%rdi
  403bd5:	e8 c6 d8 ff ff       	callq  4014a0 <_ZStlsISt11char_traitsIcEERSt13basic_ostreamIcT_ES5_PKc@plt>
  403bda:	44 89 e6             	mov    %r12d,%esi
  403bdd:	48 89 c7             	mov    %rax,%rdi
  403be0:	e8 fb d7 ff ff       	callq  4013e0 <_ZNSolsEi@plt>
  403be5:	be 99 58 40 00       	mov    $0x405899,%esi
  403bea:	48 89 c7             	mov    %rax,%rdi
  403bed:	e8 ae d8 ff ff       	callq  4014a0 <_ZStlsISt11char_traitsIcEERSt13basic_ostreamIcT_ES5_PKc@plt>
  403bf2:	89 de                	mov    %ebx,%esi
  403bf4:	48 89 c7             	mov    %rax,%rdi
  403bf7:	e8 e4 d7 ff ff       	callq  4013e0 <_ZNSolsEi@plt>
  403bfc:	be d0 15 40 00       	mov    $0x4015d0,%esi
  403c01:	48 89 c7             	mov    %rax,%rdi
  403c04:	e8 77 d9 ff ff       	callq  401580 <_ZNSolsEPFRSoS_E@plt>
  403c09:	be 9b 58 40 00       	mov    $0x40589b,%esi
  403c0e:	bf c0 72 60 00       	mov    $0x6072c0,%edi
  403c13:	e8 88 d8 ff ff       	callq  4014a0 <_ZStlsISt11char_traitsIcEERSt13basic_ostreamIcT_ES5_PKc@plt>
  403c18:	be d0 15 40 00       	mov    $0x4015d0,%esi
  403c1d:	48 89 c7             	mov    %rax,%rdi
  403c20:	e8 5b d9 ff ff       	callq  401580 <_ZNSolsEPFRSoS_E@plt>
  403c25:	be b0 58 40 00       	mov    $0x4058b0,%esi
  403c2a:	bf c0 72 60 00       	mov    $0x6072c0,%edi
  403c2f:	e8 6c d8 ff ff       	callq  4014a0 <_ZStlsISt11char_traitsIcEERSt13basic_ostreamIcT_ES5_PKc@plt>
  403c34:	be d0 15 40 00       	mov    $0x4015d0,%esi
  403c39:	48 89 c7             	mov    %rax,%rdi
  403c3c:	e8 3f d9 ff ff       	callq  401580 <_ZNSolsEPFRSoS_E@plt>
  403c41:	be d0 58 40 00       	mov    $0x4058d0,%esi
  403c46:	bf c0 72 60 00       	mov    $0x6072c0,%edi
  403c4b:	e8 50 d8 ff ff       	callq  4014a0 <_ZStlsISt11char_traitsIcEERSt13basic_ostreamIcT_ES5_PKc@plt>
  403c50:	be d0 15 40 00       	mov    $0x4015d0,%esi
  403c55:	48 89 c7             	mov    %rax,%rdi
  403c58:	e8 23 d9 ff ff       	callq  401580 <_ZNSolsEPFRSoS_E@plt>
  403c5d:	be f0 58 40 00       	mov    $0x4058f0,%esi
  403c62:	bf c0 72 60 00       	mov    $0x6072c0,%edi
  403c67:	e8 34 d8 ff ff       	callq  4014a0 <_ZStlsISt11char_traitsIcEERSt13basic_ostreamIcT_ES5_PKc@plt>
  403c6c:	be d0 15 40 00       	mov    $0x4015d0,%esi
  403c71:	48 89 c7             	mov    %rax,%rdi
  403c74:	e8 07 d9 ff ff       	callq  401580 <_ZNSolsEPFRSoS_E@plt>
  403c79:	be f0 58 40 00       	mov    $0x4058f0,%esi
  403c7e:	bf c0 72 60 00       	mov    $0x6072c0,%edi
  403c83:	e8 18 d8 ff ff       	callq  4014a0 <_ZStlsISt11char_traitsIcEERSt13basic_ostreamIcT_ES5_PKc@plt>
  403c88:	be d0 15 40 00       	mov    $0x4015d0,%esi
  403c8d:	48 89 c7             	mov    %rax,%rdi
  403c90:	e8 eb d8 ff ff       	callq  401580 <_ZNSolsEPFRSoS_E@plt>
  403c95:	be f0 58 40 00       	mov    $0x4058f0,%esi
  403c9a:	bf c0 72 60 00       	mov    $0x6072c0,%edi
  403c9f:	e8 fc d7 ff ff       	callq  4014a0 <_ZStlsISt11char_traitsIcEERSt13basic_ostreamIcT_ES5_PKc@plt>
  403ca4:	be d0 15 40 00       	mov    $0x4015d0,%esi
  403ca9:	48 89 c7             	mov    %rax,%rdi
  403cac:	e8 cf d8 ff ff       	callq  401580 <_ZNSolsEPFRSoS_E@plt>
  403cb1:	be 10 59 40 00       	mov    $0x405910,%esi
  403cb6:	bf c0 72 60 00       	mov    $0x6072c0,%edi
  403cbb:	e8 e0 d7 ff ff       	callq  4014a0 <_ZStlsISt11char_traitsIcEERSt13basic_ostreamIcT_ES5_PKc@plt>
  403cc0:	be d0 15 40 00       	mov    $0x4015d0,%esi
  403cc5:	48 89 c7             	mov    %rax,%rdi
  403cc8:	e8 b3 d8 ff ff       	callq  401580 <_ZNSolsEPFRSoS_E@plt>
  403ccd:	be 30 59 40 00       	mov    $0x405930,%esi
  403cd2:	bf c0 72 60 00       	mov    $0x6072c0,%edi
  403cd7:	e8 c4 d7 ff ff       	callq  4014a0 <_ZStlsISt11char_traitsIcEERSt13basic_ostreamIcT_ES5_PKc@plt>
  403cdc:	be d0 15 40 00       	mov    $0x4015d0,%esi
  403ce1:	48 89 c7             	mov    %rax,%rdi
  403ce4:	e8 97 d8 ff ff       	callq  401580 <_ZNSolsEPFRSoS_E@plt>
  403ce9:	be 50 59 40 00       	mov    $0x405950,%esi
  403cee:	bf c0 72 60 00       	mov    $0x6072c0,%edi
  403cf3:	e8 a8 d7 ff ff       	callq  4014a0 <_ZStlsISt11char_traitsIcEERSt13basic_ostreamIcT_ES5_PKc@plt>
  403cf8:	be d0 15 40 00       	mov    $0x4015d0,%esi
  403cfd:	48 89 c7             	mov    %rax,%rdi
  403d00:	e8 7b d8 ff ff       	callq  401580 <_ZNSolsEPFRSoS_E@plt>
  403d05:	be 70 59 40 00       	mov    $0x405970,%esi
  403d0a:	bf c0 72 60 00       	mov    $0x6072c0,%edi
  403d0f:	e8 8c d7 ff ff       	callq  4014a0 <_ZStlsISt11char_traitsIcEERSt13basic_ostreamIcT_ES5_PKc@plt>
  403d14:	be d0 15 40 00       	mov    $0x4015d0,%esi
  403d19:	48 89 c7             	mov    %rax,%rdi
  403d1c:	e8 5f d8 ff ff       	callq  401580 <_ZNSolsEPFRSoS_E@plt>
  403d21:	be 98 59 40 00       	mov    $0x405998,%esi
  403d26:	bf c0 72 60 00       	mov    $0x6072c0,%edi
  403d2b:	e8 70 d7 ff ff       	callq  4014a0 <_ZStlsISt11char_traitsIcEERSt13basic_ostreamIcT_ES5_PKc@plt>
  403d30:	be d0 15 40 00       	mov    $0x4015d0,%esi
  403d35:	48 89 c7             	mov    %rax,%rdi
  403d38:	e8 43 d8 ff ff       	callq  401580 <_ZNSolsEPFRSoS_E@plt>
  403d3d:	be c0 59 40 00       	mov    $0x4059c0,%esi
  403d42:	bf c0 72 60 00       	mov    $0x6072c0,%edi
  403d47:	e8 54 d7 ff ff       	callq  4014a0 <_ZStlsISt11char_traitsIcEERSt13basic_ostreamIcT_ES5_PKc@plt>
  403d4c:	be d0 15 40 00       	mov    $0x4015d0,%esi
  403d51:	48 89 c7             	mov    %rax,%rdi
  403d54:	e8 27 d8 ff ff       	callq  401580 <_ZNSolsEPFRSoS_E@plt>
  403d59:	be e8 59 40 00       	mov    $0x4059e8,%esi
  403d5e:	bf c0 72 60 00       	mov    $0x6072c0,%edi
  403d63:	e8 38 d7 ff ff       	callq  4014a0 <_ZStlsISt11char_traitsIcEERSt13basic_ostreamIcT_ES5_PKc@plt>
  403d68:	be d0 15 40 00       	mov    $0x4015d0,%esi
  403d6d:	48 89 c7             	mov    %rax,%rdi
  403d70:	e8 0b d8 ff ff       	callq  401580 <_ZNSolsEPFRSoS_E@plt>
  403d75:	be d0 15 40 00       	mov    $0x4015d0,%esi
  403d7a:	bf c0 72 60 00       	mov    $0x6072c0,%edi
  403d7f:	e8 fc d7 ff ff       	callq  401580 <_ZNSolsEPFRSoS_E@plt>
  403d84:	be 10 5a 40 00       	mov    $0x405a10,%esi
  403d89:	bf c0 72 60 00       	mov    $0x6072c0,%edi
  403d8e:	e8 0d d7 ff ff       	callq  4014a0 <_ZStlsISt11char_traitsIcEERSt13basic_ostreamIcT_ES5_PKc@plt>
  403d93:	be d0 15 40 00       	mov    $0x4015d0,%esi
  403d98:	48 89 c7             	mov    %rax,%rdi
  403d9b:	e8 e0 d7 ff ff       	callq  401580 <_ZNSolsEPFRSoS_E@plt>
  403da0:	be d0 15 40 00       	mov    $0x4015d0,%esi
  403da5:	bf c0 72 60 00       	mov    $0x6072c0,%edi
  403daa:	e8 d1 d7 ff ff       	callq  401580 <_ZNSolsEPFRSoS_E@plt>
  403daf:	90                   	nop
  403db0:	48 8b 45 c8          	mov    -0x38(%rbp),%rax
  403db4:	64 48 33 04 25 28 00 	xor    %fs:0x28,%rax
  403dbb:	00 00 
  403dbd:	74 05                	je     403dc4 <_Z13print_messagev+0x3a0>
  403dbf:	e8 5c d7 ff ff       	callq  401520 <__stack_chk_fail@plt>
  403dc4:	48 83 c4 38          	add    $0x38,%rsp
  403dc8:	5b                   	pop    %rbx
  403dc9:	41 5c                	pop    %r12
  403dcb:	41 5d                	pop    %r13
  403dcd:	41 5e                	pop    %r14
  403dcf:	41 5f                	pop    %r15
  403dd1:	5d                   	pop    %rbp
  403dd2:	c3                   	retq   

0000000000403dd3 <_Z13print_hp_linejj>:
  403dd3:	55                   	push   %rbp
  403dd4:	48 89 e5             	mov    %rsp,%rbp
  403dd7:	48 83 ec 20          	sub    $0x20,%rsp
  403ddb:	89 7d ec             	mov    %edi,-0x14(%rbp)
  403dde:	89 75 e8             	mov    %esi,-0x18(%rbp)
  403de1:	be 41 5a 40 00       	mov    $0x405a41,%esi
  403de6:	bf c0 72 60 00       	mov    $0x6072c0,%edi
  403deb:	e8 b0 d6 ff ff       	callq  4014a0 <_ZStlsISt11char_traitsIcEERSt13basic_ostreamIcT_ES5_PKc@plt>
  403df0:	c7 45 f8 00 00 00 00 	movl   $0x0,-0x8(%rbp)
  403df7:	8b 45 f8             	mov    -0x8(%rbp),%eax
  403dfa:	3b 45 e8             	cmp    -0x18(%rbp),%eax
  403dfd:	73 15                	jae    403e14 <_Z13print_hp_linejj+0x41>
  403dff:	be 4d 5a 40 00       	mov    $0x405a4d,%esi
  403e04:	bf c0 72 60 00       	mov    $0x6072c0,%edi
  403e09:	e8 92 d6 ff ff       	callq  4014a0 <_ZStlsISt11char_traitsIcEERSt13basic_ostreamIcT_ES5_PKc@plt>
  403e0e:	83 45 f8 0a          	addl   $0xa,-0x8(%rbp)
  403e12:	eb e3                	jmp    403df7 <_Z13print_hp_linejj+0x24>
  403e14:	be 51 5a 40 00       	mov    $0x405a51,%esi
  403e19:	bf c0 72 60 00       	mov    $0x6072c0,%edi
  403e1e:	e8 7d d6 ff ff       	callq  4014a0 <_ZStlsISt11char_traitsIcEERSt13basic_ostreamIcT_ES5_PKc@plt>
  403e23:	48 89 c2             	mov    %rax,%rdx
  403e26:	8b 45 e8             	mov    -0x18(%rbp),%eax
  403e29:	89 c6                	mov    %eax,%esi
  403e2b:	48 89 d7             	mov    %rdx,%rdi
  403e2e:	e8 cd d6 ff ff       	callq  401500 <_ZNSolsEj@plt>
  403e33:	be 55 5a 40 00       	mov    $0x405a55,%esi
  403e38:	48 89 c7             	mov    %rax,%rdi
  403e3b:	e8 60 d6 ff ff       	callq  4014a0 <_ZStlsISt11char_traitsIcEERSt13basic_ostreamIcT_ES5_PKc@plt>
  403e40:	be d0 15 40 00       	mov    $0x4015d0,%esi
  403e45:	48 89 c7             	mov    %rax,%rdi
  403e48:	e8 33 d7 ff ff       	callq  401580 <_ZNSolsEPFRSoS_E@plt>
  403e4d:	be 5c 5a 40 00       	mov    $0x405a5c,%esi
  403e52:	bf c0 72 60 00       	mov    $0x6072c0,%edi
  403e57:	e8 44 d6 ff ff       	callq  4014a0 <_ZStlsISt11char_traitsIcEERSt13basic_ostreamIcT_ES5_PKc@plt>
  403e5c:	c7 45 fc 00 00 00 00 	movl   $0x0,-0x4(%rbp)
  403e63:	8b 45 fc             	mov    -0x4(%rbp),%eax
  403e66:	3b 45 ec             	cmp    -0x14(%rbp),%eax
  403e69:	73 15                	jae    403e80 <_Z13print_hp_linejj+0xad>
  403e6b:	be 4d 5a 40 00       	mov    $0x405a4d,%esi
  403e70:	bf c0 72 60 00       	mov    $0x6072c0,%edi
  403e75:	e8 26 d6 ff ff       	callq  4014a0 <_ZStlsISt11char_traitsIcEERSt13basic_ostreamIcT_ES5_PKc@plt>
  403e7a:	83 45 fc 0a          	addl   $0xa,-0x4(%rbp)
  403e7e:	eb e3                	jmp    403e63 <_Z13print_hp_linejj+0x90>
  403e80:	be 51 5a 40 00       	mov    $0x405a51,%esi
  403e85:	bf c0 72 60 00       	mov    $0x6072c0,%edi
  403e8a:	e8 11 d6 ff ff       	callq  4014a0 <_ZStlsISt11char_traitsIcEERSt13basic_ostreamIcT_ES5_PKc@plt>
  403e8f:	48 89 c2             	mov    %rax,%rdx
  403e92:	8b 45 ec             	mov    -0x14(%rbp),%eax
  403e95:	89 c6                	mov    %eax,%esi
  403e97:	48 89 d7             	mov    %rdx,%rdi
  403e9a:	e8 61 d6 ff ff       	callq  401500 <_ZNSolsEj@plt>
  403e9f:	be 68 5a 40 00       	mov    $0x405a68,%esi
  403ea4:	48 89 c7             	mov    %rax,%rdi
  403ea7:	e8 f4 d5 ff ff       	callq  4014a0 <_ZStlsISt11char_traitsIcEERSt13basic_ostreamIcT_ES5_PKc@plt>
  403eac:	be d0 15 40 00       	mov    $0x4015d0,%esi
  403eb1:	48 89 c7             	mov    %rax,%rdi
  403eb4:	e8 c7 d6 ff ff       	callq  401580 <_ZNSolsEPFRSoS_E@plt>
  403eb9:	90                   	nop
  403eba:	c9                   	leaveq 
  403ebb:	c3                   	retq   

0000000000403ebc <_Z7read_idB5cxx11v>:
  403ebc:	55                   	push   %rbp
  403ebd:	48 89 e5             	mov    %rsp,%rbp
  403ec0:	53                   	push   %rbx
  403ec1:	48 81 ec 98 00 00 00 	sub    $0x98,%rsp
  403ec8:	48 89 bd 68 ff ff ff 	mov    %rdi,-0x98(%rbp)
  403ecf:	64 48 8b 04 25 28 00 	mov    %fs:0x28,%rax
  403ed6:	00 00 
  403ed8:	48 89 45 e8          	mov    %rax,-0x18(%rbp)
  403edc:	31 c0                	xor    %eax,%eax
  403ede:	48 8d 45 80          	lea    -0x80(%rbp),%rax
  403ee2:	48 89 c7             	mov    %rax,%rdi
  403ee5:	e8 c6 d5 ff ff       	callq  4014b0 <_ZNSt7__cxx1112basic_stringIcSt11char_traitsIcESaIcEEC1Ev@plt>
  403eea:	be 6c 5a 40 00       	mov    $0x405a6c,%esi
  403eef:	bf c0 72 60 00       	mov    $0x6072c0,%edi
  403ef4:	e8 a7 d5 ff ff       	callq  4014a0 <_ZStlsISt11char_traitsIcEERSt13basic_ostreamIcT_ES5_PKc@plt>
  403ef9:	48 8d 45 80          	lea    -0x80(%rbp),%rax
  403efd:	48 89 c6             	mov    %rax,%rsi
  403f00:	bf a0 71 60 00       	mov    $0x6071a0,%edi
  403f05:	e8 a6 d6 ff ff       	callq  4015b0 <_ZStrsIcSt11char_traitsIcESaIcEERSt13basic_istreamIT_T0_ES7_RNSt7__cxx1112basic_stringIS4_S5_T1_EE@plt>
  403f0a:	48 8d 55 80          	lea    -0x80(%rbp),%rdx
  403f0e:	48 8d 45 a0          	lea    -0x60(%rbp),%rax
  403f12:	48 89 d6             	mov    %rdx,%rsi
  403f15:	48 89 c7             	mov    %rax,%rdi
  403f18:	e8 d3 d6 ff ff       	callq  4015f0 <_ZNSt7__cxx1112basic_stringIcSt11char_traitsIcESaIcEEC1ERKS4_@plt>
  403f1d:	48 8d 45 a0          	lea    -0x60(%rbp),%rax
  403f21:	48 89 c7             	mov    %rax,%rdi
  403f24:	e8 8c fa ff ff       	callq  4039b5 <_Z16check_student_idNSt7__cxx1112basic_stringIcSt11char_traitsIcESaIcEEE>
  403f29:	83 f0 01             	xor    $0x1,%eax
  403f2c:	89 c3                	mov    %eax,%ebx
  403f2e:	48 8d 45 a0          	lea    -0x60(%rbp),%rax
  403f32:	48 89 c7             	mov    %rax,%rdi
  403f35:	e8 96 d5 ff ff       	callq  4014d0 <_ZNSt7__cxx1112basic_stringIcSt11char_traitsIcESaIcEED1Ev@plt>
  403f3a:	84 db                	test   %bl,%bl
  403f3c:	74 5a                	je     403f98 <_Z7read_idB5cxx11v+0xdc>
  403f3e:	be 90 5a 40 00       	mov    $0x405a90,%esi
  403f43:	bf c0 72 60 00       	mov    $0x6072c0,%edi
  403f48:	e8 53 d5 ff ff       	callq  4014a0 <_ZStlsISt11char_traitsIcEERSt13basic_ostreamIcT_ES5_PKc@plt>
  403f4d:	be d0 15 40 00       	mov    $0x4015d0,%esi
  403f52:	48 89 c7             	mov    %rax,%rdi
  403f55:	e8 26 d6 ff ff       	callq  401580 <_ZNSolsEPFRSoS_E@plt>
  403f5a:	48 8d 85 7f ff ff ff 	lea    -0x81(%rbp),%rax
  403f61:	48 89 c7             	mov    %rax,%rdi
  403f64:	e8 b7 d6 ff ff       	callq  401620 <_ZNSaIcEC1Ev@plt>
  403f69:	48 8d 95 7f ff ff ff 	lea    -0x81(%rbp),%rdx
  403f70:	48 8b 85 68 ff ff ff 	mov    -0x98(%rbp),%rax
  403f77:	be 00 00 00 00       	mov    $0x0,%esi
  403f7c:	48 89 c7             	mov    %rax,%rdi
  403f7f:	e8 7c d6 ff ff       	callq  401600 <_ZNSt7__cxx1112basic_stringIcSt11char_traitsIcESaIcEEC1EPKcRKS3_@plt>
  403f84:	48 8d 85 7f ff ff ff 	lea    -0x81(%rbp),%rax
  403f8b:	48 89 c7             	mov    %rax,%rdi
  403f8e:	e8 9d d5 ff ff       	callq  401530 <_ZNSaIcED1Ev@plt>
  403f93:	e9 a7 00 00 00       	jmpq   40403f <_Z7read_idB5cxx11v+0x183>
  403f98:	be b6 5a 40 00       	mov    $0x405ab6,%esi
  403f9d:	bf c0 72 60 00       	mov    $0x6072c0,%edi
  403fa2:	e8 f9 d4 ff ff       	callq  4014a0 <_ZStlsISt11char_traitsIcEERSt13basic_ostreamIcT_ES5_PKc@plt>
  403fa7:	48 89 c2             	mov    %rax,%rdx
  403faa:	48 8d 45 80          	lea    -0x80(%rbp),%rax
  403fae:	48 89 c6             	mov    %rax,%rsi
  403fb1:	48 89 d7             	mov    %rdx,%rdi
  403fb4:	e8 87 d6 ff ff       	callq  401640 <_ZStlsIcSt11char_traitsIcESaIcEERSt13basic_ostreamIT_T0_ES7_RKNSt7__cxx1112basic_stringIS4_S5_T1_EE@plt>
  403fb9:	be bf 5a 40 00       	mov    $0x405abf,%esi
  403fbe:	48 89 c7             	mov    %rax,%rdi
  403fc1:	e8 da d4 ff ff       	callq  4014a0 <_ZStlsISt11char_traitsIcEERSt13basic_ostreamIcT_ES5_PKc@plt>
  403fc6:	be d0 15 40 00       	mov    $0x4015d0,%esi
  403fcb:	48 89 c7             	mov    %rax,%rdi
  403fce:	e8 ad d5 ff ff       	callq  401580 <_ZNSolsEPFRSoS_E@plt>
  403fd3:	48 8d 45 80          	lea    -0x80(%rbp),%rax
  403fd7:	be 00 00 00 00       	mov    $0x0,%esi
  403fdc:	48 89 c7             	mov    %rax,%rdi
  403fdf:	e8 9c d6 ff ff       	callq  401680 <_ZNSt7__cxx1112basic_stringIcSt11char_traitsIcESaIcEEixEm@plt>
  403fe4:	0f b6 00             	movzbl (%rax),%eax
  403fe7:	3c 41                	cmp    $0x41,%al
  403fe9:	0f 94 c0             	sete   %al
  403fec:	84 c0                	test   %al,%al
  403fee:	74 39                	je     404029 <_Z7read_idB5cxx11v+0x16d>
  403ff0:	48 8d 45 c0          	lea    -0x40(%rbp),%rax
  403ff4:	48 8d 75 80          	lea    -0x80(%rbp),%rsi
  403ff8:	b9 06 00 00 00       	mov    $0x6,%ecx
  403ffd:	ba 01 00 00 00       	mov    $0x1,%edx
  404002:	48 89 c7             	mov    %rax,%rdi
  404005:	e8 e6 d3 ff ff       	callq  4013f0 <_ZNKSt7__cxx1112basic_stringIcSt11char_traitsIcESaIcEE6substrEmm@plt>
  40400a:	48 8d 55 c0          	lea    -0x40(%rbp),%rdx
  40400e:	48 8d 45 80          	lea    -0x80(%rbp),%rax
  404012:	48 89 d6             	mov    %rdx,%rsi
  404015:	48 89 c7             	mov    %rax,%rdi
  404018:	e8 f3 d3 ff ff       	callq  401410 <_ZNSt7__cxx1112basic_stringIcSt11char_traitsIcESaIcEEaSEOS4_@plt>
  40401d:	48 8d 45 c0          	lea    -0x40(%rbp),%rax
  404021:	48 89 c7             	mov    %rax,%rdi
  404024:	e8 a7 d4 ff ff       	callq  4014d0 <_ZNSt7__cxx1112basic_stringIcSt11char_traitsIcESaIcEED1Ev@plt>
  404029:	48 8d 55 80          	lea    -0x80(%rbp),%rdx
  40402d:	48 8b 85 68 ff ff ff 	mov    -0x98(%rbp),%rax
  404034:	48 89 d6             	mov    %rdx,%rsi
  404037:	48 89 c7             	mov    %rax,%rdi
  40403a:	e8 81 d4 ff ff       	callq  4014c0 <_ZNSt7__cxx1112basic_stringIcSt11char_traitsIcESaIcEEC1EOS4_@plt>
  40403f:	48 8d 45 80          	lea    -0x80(%rbp),%rax
  404043:	48 89 c7             	mov    %rax,%rdi
  404046:	e8 85 d4 ff ff       	callq  4014d0 <_ZNSt7__cxx1112basic_stringIcSt11char_traitsIcESaIcEED1Ev@plt>
  40404b:	48 8b 85 68 ff ff ff 	mov    -0x98(%rbp),%rax
  404052:	48 8b 4d e8          	mov    -0x18(%rbp),%rcx
  404056:	64 48 33 0c 25 28 00 	xor    %fs:0x28,%rcx
  40405d:	00 00 
  40405f:	74 46                	je     4040a7 <_Z7read_idB5cxx11v+0x1eb>
  404061:	eb 3f                	jmp    4040a2 <_Z7read_idB5cxx11v+0x1e6>
  404063:	48 89 c3             	mov    %rax,%rbx
  404066:	48 8d 85 7f ff ff ff 	lea    -0x81(%rbp),%rax
  40406d:	48 89 c7             	mov    %rax,%rdi
  404070:	e8 bb d4 ff ff       	callq  401530 <_ZNSaIcED1Ev@plt>
  404075:	eb 14                	jmp    40408b <_Z7read_idB5cxx11v+0x1cf>
  404077:	48 89 c3             	mov    %rax,%rbx
  40407a:	48 8d 45 c0          	lea    -0x40(%rbp),%rax
  40407e:	48 89 c7             	mov    %rax,%rdi
  404081:	e8 4a d4 ff ff       	callq  4014d0 <_ZNSt7__cxx1112basic_stringIcSt11char_traitsIcESaIcEED1Ev@plt>
  404086:	eb 03                	jmp    40408b <_Z7read_idB5cxx11v+0x1cf>
  404088:	48 89 c3             	mov    %rax,%rbx
  40408b:	48 8d 45 80          	lea    -0x80(%rbp),%rax
  40408f:	48 89 c7             	mov    %rax,%rdi
  404092:	e8 39 d4 ff ff       	callq  4014d0 <_ZNSt7__cxx1112basic_stringIcSt11char_traitsIcESaIcEED1Ev@plt>
  404097:	48 89 d8             	mov    %rbx,%rax
  40409a:	48 89 c7             	mov    %rax,%rdi
  40409d:	e8 ce d5 ff ff       	callq  401670 <_Unwind_Resume@plt>
  4040a2:	e8 79 d4 ff ff       	callq  401520 <__stack_chk_fail@plt>
  4040a7:	48 81 c4 98 00 00 00 	add    $0x98,%rsp
  4040ae:	5b                   	pop    %rbx
  4040af:	5d                   	pop    %rbp
  4040b0:	c3                   	retq   

00000000004040b1 <_Z14boss_next_movev>:
  4040b1:	55                   	push   %rbp
  4040b2:	48 89 e5             	mov    %rsp,%rbp
  4040b5:	e8 56 d5 ff ff       	callq  401610 <rand@plt>
  4040ba:	89 c2                	mov    %eax,%edx
  4040bc:	89 d0                	mov    %edx,%eax
  4040be:	c1 f8 1f             	sar    $0x1f,%eax
  4040c1:	c1 e8 1e             	shr    $0x1e,%eax
  4040c4:	01 c2                	add    %eax,%edx
  4040c6:	83 e2 03             	and    $0x3,%edx
  4040c9:	29 c2                	sub    %eax,%edx
  4040cb:	89 d0                	mov    %edx,%eax
  4040cd:	83 c0 01             	add    $0x1,%eax
  4040d0:	5d                   	pop    %rbp
  4040d1:	c3                   	retq   

00000000004040d2 <_Z9play_gamei>:
  4040d2:	55                   	push   %rbp
  4040d3:	48 89 e5             	mov    %rsp,%rbp
  4040d6:	48 83 ec 40          	sub    $0x40,%rsp
  4040da:	89 7d cc             	mov    %edi,-0x34(%rbp)
  4040dd:	64 48 8b 04 25 28 00 	mov    %fs:0x28,%rax
  4040e4:	00 00 
  4040e6:	48 89 45 f8          	mov    %rax,-0x8(%rbp)
  4040ea:	31 c0                	xor    %eax,%eax
  4040ec:	bf 00 00 00 00       	mov    $0x0,%edi
  4040f1:	e8 9a d5 ff ff       	callq  401690 <time@plt>
  4040f6:	48 89 45 f0          	mov    %rax,-0x10(%rbp)
  4040fa:	c7 45 d4 1e 00 00 00 	movl   $0x1e,-0x2c(%rbp)
  404101:	c7 45 d8 10 27 00 00 	movl   $0x2710,-0x28(%rbp)
  404108:	48 b8 d1 e9 83 0f 03 	movabs $0x30f83e9d1,%rax
  40410f:	00 00 00 
  404112:	48 89 45 e8          	mov    %rax,-0x18(%rbp)
  404116:	c7 45 dc 00 00 00 00 	movl   $0x0,-0x24(%rbp)
  40411d:	48 8b 45 f0          	mov    -0x10(%rbp),%rax
  404121:	89 c7                	mov    %eax,%edi
  404123:	e8 28 d4 ff ff       	callq  401550 <srand@plt>
  404128:	8b 45 cc             	mov    -0x34(%rbp),%eax
  40412b:	48 98                	cltq   
  40412d:	48 0f af 45 e8       	imul   -0x18(%rbp),%rax
  404132:	48 89 c1             	mov    %rax,%rcx
  404135:	48 ba 19 e6 19 b3 01 	movabs $0xd1c58f01b319e619,%rdx
  40413c:	8f c5 d1 
  40413f:	48 89 c8             	mov    %rcx,%rax
  404142:	48 f7 e2             	mul    %rdx
  404145:	48 89 d0             	mov    %rdx,%rax
  404148:	48 c1 e8 3a          	shr    $0x3a,%rax
  40414c:	48 89 45 e8          	mov    %rax,-0x18(%rbp)
  404150:	48 8b 55 e8          	mov    -0x18(%rbp),%rdx
  404154:	48 b8 72 cd ad 6a ca 	movabs $0x4e1a9ca6aadcd72,%rax
  40415b:	a9 e1 04 
  40415e:	48 0f af c2          	imul   %rdx,%rax
  404162:	48 29 c1             	sub    %rax,%rcx
  404165:	48 89 c8             	mov    %rcx,%rax
  404168:	48 89 45 e8          	mov    %rax,-0x18(%rbp)
  40416c:	83 7d d4 00          	cmpl   $0x0,-0x2c(%rbp)
  404170:	0f 84 d7 01 00 00    	je     40434d <_Z9play_gamei+0x27b>
  404176:	83 7d d8 00          	cmpl   $0x0,-0x28(%rbp)
  40417a:	0f 84 cd 01 00 00    	je     40434d <_Z9play_gamei+0x27b>
  404180:	8b 55 d8             	mov    -0x28(%rbp),%edx
  404183:	8b 45 d4             	mov    -0x2c(%rbp),%eax
  404186:	89 d6                	mov    %edx,%esi
  404188:	89 c7                	mov    %eax,%edi
  40418a:	e8 44 fc ff ff       	callq  403dd3 <_Z13print_hp_linejj>
  40418f:	be e0 5a 40 00       	mov    $0x405ae0,%esi
  404194:	bf c0 72 60 00       	mov    $0x6072c0,%edi
  404199:	e8 02 d3 ff ff       	callq  4014a0 <_ZStlsISt11char_traitsIcEERSt13basic_ostreamIcT_ES5_PKc@plt>
  40419e:	48 8d 45 d0          	lea    -0x30(%rbp),%rax
  4041a2:	48 89 c6             	mov    %rax,%rsi
  4041a5:	bf a0 71 60 00       	mov    $0x6071a0,%edi
  4041aa:	e8 91 d3 ff ff       	callq  401540 <_ZNSirsERi@plt>
  4041af:	8b 45 d0             	mov    -0x30(%rbp),%eax
  4041b2:	85 c0                	test   %eax,%eax
  4041b4:	7e 08                	jle    4041be <_Z9play_gamei+0xec>
  4041b6:	8b 45 d0             	mov    -0x30(%rbp),%eax
  4041b9:	83 f8 04             	cmp    $0x4,%eax
  4041bc:	7e 59                	jle    404217 <_Z9play_gamei+0x145>
  4041be:	be 12 5b 40 00       	mov    $0x405b12,%esi
  4041c3:	bf c0 72 60 00       	mov    $0x6072c0,%edi
  4041c8:	e8 d3 d2 ff ff       	callq  4014a0 <_ZStlsISt11char_traitsIcEERSt13basic_ostreamIcT_ES5_PKc@plt>
  4041cd:	be d0 15 40 00       	mov    $0x4015d0,%esi
  4041d2:	48 89 c7             	mov    %rax,%rdi
  4041d5:	e8 a6 d3 ff ff       	callq  401580 <_ZNSolsEPFRSoS_E@plt>
  4041da:	be 25 5b 40 00       	mov    $0x405b25,%esi
  4041df:	bf c0 72 60 00       	mov    $0x6072c0,%edi
  4041e4:	e8 b7 d2 ff ff       	callq  4014a0 <_ZStlsISt11char_traitsIcEERSt13basic_ostreamIcT_ES5_PKc@plt>
  4041e9:	be d0 15 40 00       	mov    $0x4015d0,%esi
  4041ee:	48 89 c7             	mov    %rax,%rdi
  4041f1:	e8 8a d3 ff ff       	callq  401580 <_ZNSolsEPFRSoS_E@plt>
  4041f6:	be 38 5b 40 00       	mov    $0x405b38,%esi
  4041fb:	bf c0 72 60 00       	mov    $0x6072c0,%edi
  404200:	e8 9b d2 ff ff       	callq  4014a0 <_ZStlsISt11char_traitsIcEERSt13basic_ostreamIcT_ES5_PKc@plt>
  404205:	be d0 15 40 00       	mov    $0x4015d0,%esi
  40420a:	48 89 c7             	mov    %rax,%rdi
  40420d:	e8 6e d3 ff ff       	callq  401580 <_ZNSolsEPFRSoS_E@plt>
  404212:	e9 31 01 00 00       	jmpq   404348 <_Z9play_gamei+0x276>
  404217:	e8 95 fe ff ff       	callq  4040b1 <_Z14boss_next_movev>
  40421c:	89 45 e4             	mov    %eax,-0x1c(%rbp)
  40421f:	8b 45 e4             	mov    -0x1c(%rbp),%eax
  404222:	83 f8 02             	cmp    $0x2,%eax
  404225:	74 68                	je     40428f <_Z9play_gamei+0x1bd>
  404227:	83 f8 02             	cmp    $0x2,%eax
  40422a:	7f 0a                	jg     404236 <_Z9play_gamei+0x164>
  40422c:	83 f8 01             	cmp    $0x1,%eax
  40422f:	74 1c                	je     40424d <_Z9play_gamei+0x17b>
  404231:	e9 0e 01 00 00       	jmpq   404344 <_Z9play_gamei+0x272>
  404236:	83 f8 03             	cmp    $0x3,%eax
  404239:	0f 84 8b 00 00 00    	je     4042ca <_Z9play_gamei+0x1f8>
  40423f:	83 f8 04             	cmp    $0x4,%eax
  404242:	0f 84 ba 00 00 00    	je     404302 <_Z9play_gamei+0x230>
  404248:	e9 f7 00 00 00       	jmpq   404344 <_Z9play_gamei+0x272>
  40424d:	be 4c 5b 40 00       	mov    $0x405b4c,%esi
  404252:	bf c0 72 60 00       	mov    $0x6072c0,%edi
  404257:	e8 44 d2 ff ff       	callq  4014a0 <_ZStlsISt11char_traitsIcEERSt13basic_ostreamIcT_ES5_PKc@plt>
  40425c:	be d0 15 40 00       	mov    $0x4015d0,%esi
  404261:	48 89 c7             	mov    %rax,%rdi
  404264:	e8 17 d3 ff ff       	callq  401580 <_ZNSolsEPFRSoS_E@plt>
  404269:	8b 45 d0             	mov    -0x30(%rbp),%eax
  40426c:	83 f8 02             	cmp    $0x2,%eax
  40426f:	75 09                	jne    40427a <_Z9play_gamei+0x1a8>
  404271:	83 6d d4 0a          	subl   $0xa,-0x2c(%rbp)
  404275:	e9 c0 00 00 00       	jmpq   40433a <_Z9play_gamei+0x268>
  40427a:	8b 45 d0             	mov    -0x30(%rbp),%eax
  40427d:	83 f8 04             	cmp    $0x4,%eax
  404280:	0f 85 b4 00 00 00    	jne    40433a <_Z9play_gamei+0x268>
  404286:	83 6d d8 0a          	subl   $0xa,-0x28(%rbp)
  40428a:	e9 ab 00 00 00       	jmpq   40433a <_Z9play_gamei+0x268>
  40428f:	be 63 5b 40 00       	mov    $0x405b63,%esi
  404294:	bf c0 72 60 00       	mov    $0x6072c0,%edi
  404299:	e8 02 d2 ff ff       	callq  4014a0 <_ZStlsISt11char_traitsIcEERSt13basic_ostreamIcT_ES5_PKc@plt>
  40429e:	be d0 15 40 00       	mov    $0x4015d0,%esi
  4042a3:	48 89 c7             	mov    %rax,%rdi
  4042a6:	e8 d5 d2 ff ff       	callq  401580 <_ZNSolsEPFRSoS_E@plt>
  4042ab:	8b 45 d0             	mov    -0x30(%rbp),%eax
  4042ae:	83 f8 03             	cmp    $0x3,%eax
  4042b1:	75 09                	jne    4042bc <_Z9play_gamei+0x1ea>
  4042b3:	83 6d d4 0a          	subl   $0xa,-0x2c(%rbp)
  4042b7:	e9 81 00 00 00       	jmpq   40433d <_Z9play_gamei+0x26b>
  4042bc:	8b 45 d0             	mov    -0x30(%rbp),%eax
  4042bf:	83 f8 01             	cmp    $0x1,%eax
  4042c2:	75 79                	jne    40433d <_Z9play_gamei+0x26b>
  4042c4:	83 6d d8 0a          	subl   $0xa,-0x28(%rbp)
  4042c8:	eb 73                	jmp    40433d <_Z9play_gamei+0x26b>
  4042ca:	be 79 5b 40 00       	mov    $0x405b79,%esi
  4042cf:	bf c0 72 60 00       	mov    $0x6072c0,%edi
  4042d4:	e8 c7 d1 ff ff       	callq  4014a0 <_ZStlsISt11char_traitsIcEERSt13basic_ostreamIcT_ES5_PKc@plt>
  4042d9:	be d0 15 40 00       	mov    $0x4015d0,%esi
  4042de:	48 89 c7             	mov    %rax,%rdi
  4042e1:	e8 9a d2 ff ff       	callq  401580 <_ZNSolsEPFRSoS_E@plt>
  4042e6:	8b 45 d0             	mov    -0x30(%rbp),%eax
  4042e9:	83 f8 04             	cmp    $0x4,%eax
  4042ec:	75 06                	jne    4042f4 <_Z9play_gamei+0x222>
  4042ee:	83 6d d4 0a          	subl   $0xa,-0x2c(%rbp)
  4042f2:	eb 4c                	jmp    404340 <_Z9play_gamei+0x26e>
  4042f4:	8b 45 d0             	mov    -0x30(%rbp),%eax
  4042f7:	83 f8 02             	cmp    $0x2,%eax
  4042fa:	75 44                	jne    404340 <_Z9play_gamei+0x26e>
  4042fc:	83 6d d8 0a          	subl   $0xa,-0x28(%rbp)
  404300:	eb 3e                	jmp    404340 <_Z9play_gamei+0x26e>
  404302:	be 8f 5b 40 00       	mov    $0x405b8f,%esi
  404307:	bf c0 72 60 00       	mov    $0x6072c0,%edi
  40430c:	e8 8f d1 ff ff       	callq  4014a0 <_ZStlsISt11char_traitsIcEERSt13basic_ostreamIcT_ES5_PKc@plt>
  404311:	be d0 15 40 00       	mov    $0x4015d0,%esi
  404316:	48 89 c7             	mov    %rax,%rdi
  404319:	e8 62 d2 ff ff       	callq  401580 <_ZNSolsEPFRSoS_E@plt>
  40431e:	8b 45 d0             	mov    -0x30(%rbp),%eax
  404321:	83 f8 01             	cmp    $0x1,%eax
  404324:	75 06                	jne    40432c <_Z9play_gamei+0x25a>
  404326:	83 6d d4 0a          	subl   $0xa,-0x2c(%rbp)
  40432a:	eb 17                	jmp    404343 <_Z9play_gamei+0x271>
  40432c:	8b 45 d0             	mov    -0x30(%rbp),%eax
  40432f:	83 f8 03             	cmp    $0x3,%eax
  404332:	75 0f                	jne    404343 <_Z9play_gamei+0x271>
  404334:	83 6d d8 0a          	subl   $0xa,-0x28(%rbp)
  404338:	eb 09                	jmp    404343 <_Z9play_gamei+0x271>
  40433a:	90                   	nop
  40433b:	eb 07                	jmp    404344 <_Z9play_gamei+0x272>
  40433d:	90                   	nop
  40433e:	eb 04                	jmp    404344 <_Z9play_gamei+0x272>
  404340:	90                   	nop
  404341:	eb 01                	jmp    404344 <_Z9play_gamei+0x272>
  404343:	90                   	nop
  404344:	83 45 dc 01          	addl   $0x1,-0x24(%rbp)
  404348:	e9 1f fe ff ff       	jmpq   40416c <_Z9play_gamei+0x9a>
  40434d:	8b 55 d8             	mov    -0x28(%rbp),%edx
  404350:	8b 45 d4             	mov    -0x2c(%rbp),%eax
  404353:	89 d6                	mov    %edx,%esi
  404355:	89 c7                	mov    %eax,%edi
  404357:	e8 77 fa ff ff       	callq  403dd3 <_Z13print_hp_linejj>
  40435c:	8b 45 cc             	mov    -0x34(%rbp),%eax
  40435f:	48 98                	cltq   
  404361:	48 0f af 45 e8       	imul   -0x18(%rbp),%rax
  404366:	48 89 c1             	mov    %rax,%rcx
  404369:	48 ba 19 e6 19 b3 01 	movabs $0xd1c58f01b319e619,%rdx
  404370:	8f c5 d1 
  404373:	48 89 c8             	mov    %rcx,%rax
  404376:	48 f7 e2             	mul    %rdx
  404379:	48 89 d0             	mov    %rdx,%rax
  40437c:	48 c1 e8 3a          	shr    $0x3a,%rax
  404380:	48 89 45 e8          	mov    %rax,-0x18(%rbp)
  404384:	48 8b 55 e8          	mov    -0x18(%rbp),%rdx
  404388:	48 b8 72 cd ad 6a ca 	movabs $0x4e1a9ca6aadcd72,%rax
  40438f:	a9 e1 04 
  404392:	48 0f af c2          	imul   %rdx,%rax
  404396:	48 29 c1             	sub    %rax,%rcx
  404399:	48 89 c8             	mov    %rcx,%rax
  40439c:	48 89 45 e8          	mov    %rax,-0x18(%rbp)
  4043a0:	83 7d d4 00          	cmpl   $0x0,-0x2c(%rbp)
  4043a4:	75 21                	jne    4043c7 <_Z9play_gamei+0x2f5>
  4043a6:	be ac 5b 40 00       	mov    $0x405bac,%esi
  4043ab:	bf c0 72 60 00       	mov    $0x6072c0,%edi
  4043b0:	e8 eb d0 ff ff       	callq  4014a0 <_ZStlsISt11char_traitsIcEERSt13basic_ostreamIcT_ES5_PKc@plt>
  4043b5:	be d0 15 40 00       	mov    $0x4015d0,%esi
  4043ba:	48 89 c7             	mov    %rax,%rdi
  4043bd:	e8 be d1 ff ff       	callq  401580 <_ZNSolsEPFRSoS_E@plt>
  4043c2:	e9 0c 01 00 00       	jmpq   4044d3 <_Z9play_gamei+0x401>
  4043c7:	8b 55 dc             	mov    -0x24(%rbp),%edx
  4043ca:	89 d0                	mov    %edx,%eax
  4043cc:	c1 e0 02             	shl    $0x2,%eax
  4043cf:	01 d0                	add    %edx,%eax
  4043d1:	01 c0                	add    %eax,%eax
  4043d3:	3d 10 27 00 00       	cmp    $0x2710,%eax
  4043d8:	0f 85 d9 00 00 00    	jne    4044b7 <_Z9play_gamei+0x3e5>
  4043de:	83 7d d8 00          	cmpl   $0x0,-0x28(%rbp)
  4043e2:	0f 85 cf 00 00 00    	jne    4044b7 <_Z9play_gamei+0x3e5>
  4043e8:	be d0 5b 40 00       	mov    $0x405bd0,%esi
  4043ed:	bf c0 72 60 00       	mov    $0x6072c0,%edi
  4043f2:	e8 a9 d0 ff ff       	callq  4014a0 <_ZStlsISt11char_traitsIcEERSt13basic_ostreamIcT_ES5_PKc@plt>
  4043f7:	be d0 15 40 00       	mov    $0x4015d0,%esi
  4043fc:	48 89 c7             	mov    %rax,%rdi
  4043ff:	e8 7c d1 ff ff       	callq  401580 <_ZNSolsEPFRSoS_E@plt>
  404404:	be f7 5b 40 00       	mov    $0x405bf7,%esi
  404409:	bf c0 72 60 00       	mov    $0x6072c0,%edi
  40440e:	e8 8d d0 ff ff       	callq  4014a0 <_ZStlsISt11char_traitsIcEERSt13basic_ostreamIcT_ES5_PKc@plt>
  404413:	be d0 15 40 00       	mov    $0x4015d0,%esi
  404418:	48 89 c7             	mov    %rax,%rdi
  40441b:	e8 60 d1 ff ff       	callq  401580 <_ZNSolsEPFRSoS_E@plt>
  404420:	c7 45 e0 02 00 00 00 	movl   $0x2,-0x20(%rbp)
  404427:	81 7d e0 ff 07 00 00 	cmpl   $0x7ff,-0x20(%rbp)
  40442e:	7f 66                	jg     404496 <_Z9play_gamei+0x3c4>
  404430:	8b 45 cc             	mov    -0x34(%rbp),%eax
  404433:	48 98                	cltq   
  404435:	48 0f af 45 e8       	imul   -0x18(%rbp),%rax
  40443a:	48 89 c1             	mov    %rax,%rcx
  40443d:	48 ba 19 e6 19 b3 01 	movabs $0xd1c58f01b319e619,%rdx
  404444:	8f c5 d1 
  404447:	48 89 c8             	mov    %rcx,%rax
  40444a:	48 f7 e2             	mul    %rdx
  40444d:	48 89 d0             	mov    %rdx,%rax
  404450:	48 c1 e8 3a          	shr    $0x3a,%rax
  404454:	48 89 45 e8          	mov    %rax,-0x18(%rbp)
  404458:	48 8b 55 e8          	mov    -0x18(%rbp),%rdx
  40445c:	48 b8 72 cd ad 6a ca 	movabs $0x4e1a9ca6aadcd72,%rax
  404463:	a9 e1 04 
  404466:	48 0f af c2          	imul   %rdx,%rax
  40446a:	48 29 c1             	sub    %rax,%rcx
  40446d:	48 89 c8             	mov    %rcx,%rax
  404470:	48 89 45 e8          	mov    %rax,-0x18(%rbp)
  404474:	8b 45 e0             	mov    -0x20(%rbp),%eax
  404477:	8d 50 0c             	lea    0xc(%rax),%edx
  40447a:	89 d0                	mov    %edx,%eax
  40447c:	c1 e0 02             	shl    $0x2,%eax
  40447f:	01 d0                	add    %edx,%eax
  404481:	8d 50 c4             	lea    -0x3c(%rax),%edx
  404484:	8b 45 e0             	mov    -0x20(%rbp),%eax
  404487:	c1 e0 02             	shl    $0x2,%eax
  40448a:	29 c2                	sub    %eax,%edx
  40448c:	89 d0                	mov    %edx,%eax
  40448e:	89 45 e0             	mov    %eax,-0x20(%rbp)
  404491:	d1 65 e0             	shll   -0x20(%rbp)
  404494:	eb 91                	jmp    404427 <_Z9play_gamei+0x355>
  404496:	48 8b 45 e8          	mov    -0x18(%rbp),%rax
  40449a:	48 89 c6             	mov    %rax,%rsi
  40449d:	bf c0 72 60 00       	mov    $0x6072c0,%edi
  4044a2:	e8 59 cf ff ff       	callq  401400 <_ZNSolsEy@plt>
  4044a7:	be d0 15 40 00       	mov    $0x4015d0,%esi
  4044ac:	48 89 c7             	mov    %rax,%rdi
  4044af:	e8 cc d0 ff ff       	callq  401580 <_ZNSolsEPFRSoS_E@plt>
  4044b4:	90                   	nop
  4044b5:	eb 1c                	jmp    4044d3 <_Z9play_gamei+0x401>
  4044b7:	be 09 5c 40 00       	mov    $0x405c09,%esi
  4044bc:	bf c0 72 60 00       	mov    $0x6072c0,%edi
  4044c1:	e8 da cf ff ff       	callq  4014a0 <_ZStlsISt11char_traitsIcEERSt13basic_ostreamIcT_ES5_PKc@plt>
  4044c6:	be d0 15 40 00       	mov    $0x4015d0,%esi
  4044cb:	48 89 c7             	mov    %rax,%rdi
  4044ce:	e8 ad d0 ff ff       	callq  401580 <_ZNSolsEPFRSoS_E@plt>
  4044d3:	90                   	nop
  4044d4:	48 8b 45 f8          	mov    -0x8(%rbp),%rax
  4044d8:	64 48 33 04 25 28 00 	xor    %fs:0x28,%rax
  4044df:	00 00 
  4044e1:	74 05                	je     4044e8 <_Z9play_gamei+0x416>
  4044e3:	e8 38 d0 ff ff       	callq  401520 <__stack_chk_fail@plt>
  4044e8:	c9                   	leaveq 
  4044e9:	c3                   	retq   

00000000004044ea <main>:
  4044ea:	55                   	push   %rbp
  4044eb:	48 89 e5             	mov    %rsp,%rbp
  4044ee:	53                   	push   %rbx
  4044ef:	48 83 ec 68          	sub    $0x68,%rsp
  4044f3:	64 48 8b 04 25 28 00 	mov    %fs:0x28,%rax
  4044fa:	00 00 
  4044fc:	48 89 45 e8          	mov    %rax,-0x18(%rbp)
  404500:	31 c0                	xor    %eax,%eax
  404502:	48 8d 45 a0          	lea    -0x60(%rbp),%rax
  404506:	48 89 c7             	mov    %rax,%rdi
  404509:	e8 a2 cf ff ff       	callq  4014b0 <_ZNSt7__cxx1112basic_stringIcSt11char_traitsIcESaIcEEC1Ev@plt>
  40450e:	e8 93 d2 ff ff       	callq  4017a6 <_Z17form_student_listv>
  404513:	e8 0c f5 ff ff       	callq  403a24 <_Z13print_messagev>
  404518:	48 8d 45 c0          	lea    -0x40(%rbp),%rax
  40451c:	48 89 c7             	mov    %rax,%rdi
  40451f:	e8 98 f9 ff ff       	callq  403ebc <_Z7read_idB5cxx11v>
  404524:	48 8d 55 c0          	lea    -0x40(%rbp),%rdx
  404528:	48 8d 45 a0          	lea    -0x60(%rbp),%rax
  40452c:	48 89 d6             	mov    %rdx,%rsi
  40452f:	48 89 c7             	mov    %rax,%rdi
  404532:	e8 d9 ce ff ff       	callq  401410 <_ZNSt7__cxx1112basic_stringIcSt11char_traitsIcESaIcEEaSEOS4_@plt>
  404537:	48 8d 45 c0          	lea    -0x40(%rbp),%rax
  40453b:	48 89 c7             	mov    %rax,%rdi
  40453e:	e8 8d cf ff ff       	callq  4014d0 <_ZNSt7__cxx1112basic_stringIcSt11char_traitsIcESaIcEED1Ev@plt>
  404543:	48 8d 45 a0          	lea    -0x60(%rbp),%rax
  404547:	ba 0a 00 00 00       	mov    $0xa,%edx
  40454c:	be 00 00 00 00       	mov    $0x0,%esi
  404551:	48 89 c7             	mov    %rax,%rdi
  404554:	e8 26 01 00 00       	callq  40467f <_ZNSt7__cxx114stoiERKNS_12basic_stringIcSt11char_traitsIcESaIcEEEPmi>
  404559:	89 45 9c             	mov    %eax,-0x64(%rbp)
  40455c:	8b 45 9c             	mov    -0x64(%rbp),%eax
  40455f:	89 c7                	mov    %eax,%edi
  404561:	e8 6c fb ff ff       	callq  4040d2 <_Z9play_gamei>
  404566:	bb 00 00 00 00       	mov    $0x0,%ebx
  40456b:	48 8d 45 a0          	lea    -0x60(%rbp),%rax
  40456f:	48 89 c7             	mov    %rax,%rdi
  404572:	e8 59 cf ff ff       	callq  4014d0 <_ZNSt7__cxx1112basic_stringIcSt11char_traitsIcESaIcEED1Ev@plt>
  404577:	89 d8                	mov    %ebx,%eax
  404579:	48 8b 4d e8          	mov    -0x18(%rbp),%rcx
  40457d:	64 48 33 0c 25 28 00 	xor    %fs:0x28,%rcx
  404584:	00 00 
  404586:	74 32                	je     4045ba <main+0xd0>
  404588:	eb 2b                	jmp    4045b5 <main+0xcb>
  40458a:	48 89 c3             	mov    %rax,%rbx
  40458d:	48 8d 45 c0          	lea    -0x40(%rbp),%rax
  404591:	48 89 c7             	mov    %rax,%rdi
  404594:	e8 37 cf ff ff       	callq  4014d0 <_ZNSt7__cxx1112basic_stringIcSt11char_traitsIcESaIcEED1Ev@plt>
  404599:	eb 03                	jmp    40459e <main+0xb4>
  40459b:	48 89 c3             	mov    %rax,%rbx
  40459e:	48 8d 45 a0          	lea    -0x60(%rbp),%rax
  4045a2:	48 89 c7             	mov    %rax,%rdi
  4045a5:	e8 26 cf ff ff       	callq  4014d0 <_ZNSt7__cxx1112basic_stringIcSt11char_traitsIcESaIcEED1Ev@plt>
  4045aa:	48 89 d8             	mov    %rbx,%rax
  4045ad:	48 89 c7             	mov    %rax,%rdi
  4045b0:	e8 bb d0 ff ff       	callq  401670 <_Unwind_Resume@plt>
  4045b5:	e8 66 cf ff ff       	callq  401520 <__stack_chk_fail@plt>
  4045ba:	48 83 c4 68          	add    $0x68,%rsp
  4045be:	5b                   	pop    %rbx
  4045bf:	5d                   	pop    %rbp
  4045c0:	c3                   	retq   

00000000004045c1 <_Z41__static_initialization_and_destruction_0ii>:
  4045c1:	55                   	push   %rbp
  4045c2:	48 89 e5             	mov    %rsp,%rbp
  4045c5:	48 83 ec 10          	sub    $0x10,%rsp
  4045c9:	89 7d fc             	mov    %edi,-0x4(%rbp)
  4045cc:	89 75 f8             	mov    %esi,-0x8(%rbp)
  4045cf:	83 7d fc 01          	cmpl   $0x1,-0x4(%rbp)
  4045d3:	75 45                	jne    40461a <_Z41__static_initialization_and_destruction_0ii+0x59>
  4045d5:	81 7d f8 ff ff 00 00 	cmpl   $0xffff,-0x8(%rbp)
  4045dc:	75 3c                	jne    40461a <_Z41__static_initialization_and_destruction_0ii+0x59>
  4045de:	bf f8 73 60 00       	mov    $0x6073f8,%edi
  4045e3:	e8 58 ce ff ff       	callq  401440 <_ZNSt8ios_base4InitC1Ev@plt>
  4045e8:	ba 88 71 60 00       	mov    $0x607188,%edx
  4045ed:	be f8 73 60 00       	mov    $0x6073f8,%esi
  4045f2:	bf 90 14 40 00       	mov    $0x401490,%edi
  4045f7:	e8 74 ce ff ff       	callq  401470 <__cxa_atexit@plt>
  4045fc:	bf e0 73 60 00       	mov    $0x6073e0,%edi
  404601:	e8 9c 01 00 00       	callq  4047a2 <_ZNSt6vectorINSt7__cxx1112basic_stringIcSt11char_traitsIcESaIcEEESaIS5_EEC1Ev>
  404606:	ba 88 71 60 00       	mov    $0x607188,%edx
  40460b:	be e0 73 60 00       	mov    $0x6073e0,%esi
  404610:	bf 24 53 40 00       	mov    $0x405324,%edi
  404615:	e8 56 ce ff ff       	callq  401470 <__cxa_atexit@plt>
  40461a:	90                   	nop
  40461b:	c9                   	leaveq 
  40461c:	c3                   	retq   

000000000040461d <_GLOBAL__sub_I__Z15student_id_listB5cxx11>:
  40461d:	55                   	push   %rbp
  40461e:	48 89 e5             	mov    %rsp,%rbp
  404621:	be ff ff 00 00       	mov    $0xffff,%esi
  404626:	bf 01 00 00 00       	mov    $0x1,%edi
  40462b:	e8 91 ff ff ff       	callq  4045c1 <_Z41__static_initialization_and_destruction_0ii>
  404630:	5d                   	pop    %rbp
  404631:	c3                   	retq   

0000000000404632 <_ZNSt11char_traitsIcE7compareEPKcS2_m>:
  404632:	55                   	push   %rbp
  404633:	48 89 e5             	mov    %rsp,%rbp
  404636:	48 83 ec 20          	sub    $0x20,%rsp
  40463a:	48 89 7d f8          	mov    %rdi,-0x8(%rbp)
  40463e:	48 89 75 f0          	mov    %rsi,-0x10(%rbp)
  404642:	48 89 55 e8          	mov    %rdx,-0x18(%rbp)
  404646:	48 83 7d e8 00       	cmpq   $0x0,-0x18(%rbp)
  40464b:	75 07                	jne    404654 <_ZNSt11char_traitsIcE7compareEPKcS2_m+0x22>
  40464d:	b8 00 00 00 00       	mov    $0x0,%eax
  404652:	eb 17                	jmp    40466b <_ZNSt11char_traitsIcE7compareEPKcS2_m+0x39>
  404654:	48 8b 55 e8          	mov    -0x18(%rbp),%rdx
  404658:	48 8b 4d f0          	mov    -0x10(%rbp),%rcx
  40465c:	48 8b 45 f8          	mov    -0x8(%rbp),%rax
  404660:	48 89 ce             	mov    %rcx,%rsi
  404663:	48 89 c7             	mov    %rax,%rdi
  404666:	e8 05 cf ff ff       	callq  401570 <memcmp@plt>
  40466b:	c9                   	leaveq 
  40466c:	c3                   	retq   

000000000040466d <_ZnwmPv>:
  40466d:	55                   	push   %rbp
  40466e:	48 89 e5             	mov    %rsp,%rbp
  404671:	48 89 7d f8          	mov    %rdi,-0x8(%rbp)
  404675:	48 89 75 f0          	mov    %rsi,-0x10(%rbp)
  404679:	48 8b 45 f0          	mov    -0x10(%rbp),%rax
  40467d:	5d                   	pop    %rbp
  40467e:	c3                   	retq   

000000000040467f <_ZNSt7__cxx114stoiERKNS_12basic_stringIcSt11char_traitsIcESaIcEEEPmi>:
  40467f:	55                   	push   %rbp
  404680:	48 89 e5             	mov    %rsp,%rbp
  404683:	48 83 ec 20          	sub    $0x20,%rsp
  404687:	48 89 7d f8          	mov    %rdi,-0x8(%rbp)
  40468b:	48 89 75 f0          	mov    %rsi,-0x10(%rbp)
  40468f:	89 55 ec             	mov    %edx,-0x14(%rbp)
  404692:	48 8b 45 f8          	mov    -0x8(%rbp),%rax
  404696:	48 89 c7             	mov    %rax,%rdi
  404699:	e8 22 cf ff ff       	callq  4015c0 <_ZNKSt7__cxx1112basic_stringIcSt11char_traitsIcESaIcEE5c_strEv@plt>
  40469e:	48 89 c6             	mov    %rax,%rsi
  4046a1:	8b 55 ec             	mov    -0x14(%rbp),%edx
  4046a4:	48 8b 45 f0          	mov    -0x10(%rbp),%rax
  4046a8:	41 89 d0             	mov    %edx,%r8d
  4046ab:	48 89 c1             	mov    %rax,%rcx
  4046ae:	48 89 f2             	mov    %rsi,%rdx
  4046b1:	be f9 53 40 00       	mov    $0x4053f9,%esi
  4046b6:	bf e0 14 40 00       	mov    $0x4014e0,%edi
  4046bb:	e8 02 00 00 00       	callq  4046c2 <_ZN9__gnu_cxx6__stoaIlicIiEEET0_PFT_PKT1_PPS3_DpT2_EPKcS5_PmS9_>
  4046c0:	c9                   	leaveq 
  4046c1:	c3                   	retq   

00000000004046c2 <_ZN9__gnu_cxx6__stoaIlicIiEEET0_PFT_PKT1_PPS3_DpT2_EPKcS5_PmS9_>:
  4046c2:	55                   	push   %rbp
  4046c3:	48 89 e5             	mov    %rsp,%rbp
  4046c6:	48 83 ec 50          	sub    $0x50,%rsp
  4046ca:	48 89 7d d8          	mov    %rdi,-0x28(%rbp)
  4046ce:	48 89 75 d0          	mov    %rsi,-0x30(%rbp)
  4046d2:	48 89 55 c8          	mov    %rdx,-0x38(%rbp)
  4046d6:	48 89 4d c0          	mov    %rcx,-0x40(%rbp)
  4046da:	44 89 45 bc          	mov    %r8d,-0x44(%rbp)
  4046de:	64 48 8b 04 25 28 00 	mov    %fs:0x28,%rax
  4046e5:	00 00 
  4046e7:	48 89 45 f8          	mov    %rax,-0x8(%rbp)
  4046eb:	31 c0                	xor    %eax,%eax
  4046ed:	e8 1e ce ff ff       	callq  401510 <__errno_location@plt>
  4046f2:	c7 00 00 00 00 00    	movl   $0x0,(%rax)
  4046f8:	8b 55 bc             	mov    -0x44(%rbp),%edx
  4046fb:	48 8d 75 e8          	lea    -0x18(%rbp),%rsi
  4046ff:	48 8b 4d c8          	mov    -0x38(%rbp),%rcx
  404703:	48 8b 45 d8          	mov    -0x28(%rbp),%rax
  404707:	48 89 cf             	mov    %rcx,%rdi
  40470a:	ff d0                	callq  *%rax
  40470c:	48 89 45 f0          	mov    %rax,-0x10(%rbp)
  404710:	48 8b 45 e8          	mov    -0x18(%rbp),%rax
  404714:	48 3b 45 c8          	cmp    -0x38(%rbp),%rax
  404718:	75 0c                	jne    404726 <_ZN9__gnu_cxx6__stoaIlicIiEEET0_PFT_PKT1_PPS3_DpT2_EPKcS5_PmS9_+0x64>
  40471a:	48 8b 45 d0          	mov    -0x30(%rbp),%rax
  40471e:	48 89 c7             	mov    %rax,%rdi
  404721:	e8 3a cd ff ff       	callq  401460 <_ZSt24__throw_invalid_argumentPKc@plt>
  404726:	e8 e5 cd ff ff       	callq  401510 <__errno_location@plt>
  40472b:	8b 00                	mov    (%rax),%eax
  40472d:	83 f8 22             	cmp    $0x22,%eax
  404730:	74 14                	je     404746 <_ZN9__gnu_cxx6__stoaIlicIiEEET0_PFT_PKT1_PPS3_DpT2_EPKcS5_PmS9_+0x84>
  404732:	48 81 7d f0 00 00 00 	cmpq   $0xffffffff80000000,-0x10(%rbp)
  404739:	80 
  40473a:	7c 0a                	jl     404746 <_ZN9__gnu_cxx6__stoaIlicIiEEET0_PFT_PKT1_PPS3_DpT2_EPKcS5_PmS9_+0x84>
  40473c:	48 81 7d f0 ff ff ff 	cmpq   $0x7fffffff,-0x10(%rbp)
  404743:	7f 
  404744:	7e 0c                	jle    404752 <_ZN9__gnu_cxx6__stoaIlicIiEEET0_PFT_PKT1_PPS3_DpT2_EPKcS5_PmS9_+0x90>
  404746:	48 8b 45 d0          	mov    -0x30(%rbp),%rax
  40474a:	48 89 c7             	mov    %rax,%rdi
  40474d:	e8 2e cd ff ff       	callq  401480 <_ZSt20__throw_out_of_rangePKc@plt>
  404752:	48 8b 45 f0          	mov    -0x10(%rbp),%rax
  404756:	89 45 e4             	mov    %eax,-0x1c(%rbp)
  404759:	48 83 7d c0 00       	cmpq   $0x0,-0x40(%rbp)
  40475e:	74 1b                	je     40477b <_ZN9__gnu_cxx6__stoaIlicIiEEET0_PFT_PKT1_PPS3_DpT2_EPKcS5_PmS9_+0xb9>
  404760:	48 8b 45 e8          	mov    -0x18(%rbp),%rax
  404764:	48 89 c2             	mov    %rax,%rdx
  404767:	48 8b 45 c8          	mov    -0x38(%rbp),%rax
  40476b:	48 29 c2             	sub    %rax,%rdx
  40476e:	48 89 d0             	mov    %rdx,%rax
  404771:	48 89 c2             	mov    %rax,%rdx
  404774:	48 8b 45 c0          	mov    -0x40(%rbp),%rax
  404778:	48 89 10             	mov    %rdx,(%rax)
  40477b:	8b 45 e4             	mov    -0x1c(%rbp),%eax
  40477e:	48 8b 4d f8          	mov    -0x8(%rbp),%rcx
  404782:	64 48 33 0c 25 28 00 	xor    %fs:0x28,%rcx
  404789:	00 00 
  40478b:	74 05                	je     404792 <_ZN9__gnu_cxx6__stoaIlicIiEEET0_PFT_PKT1_PPS3_DpT2_EPKcS5_PmS9_+0xd0>
  40478d:	e8 8e cd ff ff       	callq  401520 <__stack_chk_fail@plt>
  404792:	c9                   	leaveq 
  404793:	c3                   	retq   

0000000000404794 <_ZSt4moveIRNSt7__cxx1112basic_stringIcSt11char_traitsIcESaIcEEEEONSt16remove_referenceIT_E4typeEOS8_>:
  404794:	55                   	push   %rbp
  404795:	48 89 e5             	mov    %rsp,%rbp
  404798:	48 89 7d f8          	mov    %rdi,-0x8(%rbp)
  40479c:	48 8b 45 f8          	mov    -0x8(%rbp),%rax
  4047a0:	5d                   	pop    %rbp
  4047a1:	c3                   	retq   

00000000004047a2 <_ZNSt6vectorINSt7__cxx1112basic_stringIcSt11char_traitsIcESaIcEEESaIS5_EEC1Ev>:
  4047a2:	55                   	push   %rbp
  4047a3:	48 89 e5             	mov    %rsp,%rbp
  4047a6:	48 83 ec 10          	sub    $0x10,%rsp
  4047aa:	48 89 7d f8          	mov    %rdi,-0x8(%rbp)
  4047ae:	48 8b 45 f8          	mov    -0x8(%rbp),%rax
  4047b2:	48 89 c7             	mov    %rax,%rdi
  4047b5:	e8 1c 01 00 00       	callq  4048d6 <_ZNSt12_Vector_baseINSt7__cxx1112basic_stringIcSt11char_traitsIcESaIcEEESaIS5_EEC1Ev>
  4047ba:	90                   	nop
  4047bb:	c9                   	leaveq 
  4047bc:	c3                   	retq   
  4047bd:	90                   	nop

00000000004047be <_ZNSt6vectorINSt7__cxx1112basic_stringIcSt11char_traitsIcESaIcEEESaIS5_EE9push_backEOS5_>:
  4047be:	55                   	push   %rbp
  4047bf:	48 89 e5             	mov    %rsp,%rbp
  4047c2:	48 83 ec 10          	sub    $0x10,%rsp
  4047c6:	48 89 7d f8          	mov    %rdi,-0x8(%rbp)
  4047ca:	48 89 75 f0          	mov    %rsi,-0x10(%rbp)
  4047ce:	48 8b 45 f0          	mov    -0x10(%rbp),%rax
  4047d2:	48 89 c7             	mov    %rax,%rdi
  4047d5:	e8 ba ff ff ff       	callq  404794 <_ZSt4moveIRNSt7__cxx1112basic_stringIcSt11char_traitsIcESaIcEEEEONSt16remove_referenceIT_E4typeEOS8_>
  4047da:	48 89 c2             	mov    %rax,%rdx
  4047dd:	48 8b 45 f8          	mov    -0x8(%rbp),%rax
  4047e1:	48 89 d6             	mov    %rdx,%rsi
  4047e4:	48 89 c7             	mov    %rax,%rdi
  4047e7:	e8 64 01 00 00       	callq  404950 <_ZNSt6vectorINSt7__cxx1112basic_stringIcSt11char_traitsIcESaIcEEESaIS5_EE12emplace_backIIS5_EEEvDpOT_>
  4047ec:	90                   	nop
  4047ed:	c9                   	leaveq 
  4047ee:	c3                   	retq   
  4047ef:	90                   	nop

00000000004047f0 <_ZNKSt6vectorINSt7__cxx1112basic_stringIcSt11char_traitsIcESaIcEEESaIS5_EE4sizeEv>:
  4047f0:	55                   	push   %rbp
  4047f1:	48 89 e5             	mov    %rsp,%rbp
  4047f4:	48 89 7d f8          	mov    %rdi,-0x8(%rbp)
  4047f8:	48 8b 45 f8          	mov    -0x8(%rbp),%rax
  4047fc:	48 8b 40 08          	mov    0x8(%rax),%rax
  404800:	48 89 c2             	mov    %rax,%rdx
  404803:	48 8b 45 f8          	mov    -0x8(%rbp),%rax
  404807:	48 8b 00             	mov    (%rax),%rax
  40480a:	48 29 c2             	sub    %rax,%rdx
  40480d:	48 89 d0             	mov    %rdx,%rax
  404810:	48 c1 f8 05          	sar    $0x5,%rax
  404814:	5d                   	pop    %rbp
  404815:	c3                   	retq   

0000000000404816 <_ZNSt6vectorINSt7__cxx1112basic_stringIcSt11char_traitsIcESaIcEEESaIS5_EEixEm>:
  404816:	55                   	push   %rbp
  404817:	48 89 e5             	mov    %rsp,%rbp
  40481a:	48 89 7d f8          	mov    %rdi,-0x8(%rbp)
  40481e:	48 89 75 f0          	mov    %rsi,-0x10(%rbp)
  404822:	48 8b 45 f8          	mov    -0x8(%rbp),%rax
  404826:	48 8b 00             	mov    (%rax),%rax
  404829:	48 8b 55 f0          	mov    -0x10(%rbp),%rdx
  40482d:	48 c1 e2 05          	shl    $0x5,%rdx
  404831:	48 01 d0             	add    %rdx,%rax
  404834:	5d                   	pop    %rbp
  404835:	c3                   	retq   

0000000000404836 <_ZSteqIcEN9__gnu_cxx11__enable_ifIXsrSt9__is_charIT_E7__valueEbE6__typeERKNSt7__cxx1112basic_stringIS3_St11char_traitsIS3_ESaIS3_EEESE_>:
  404836:	55                   	push   %rbp
  404837:	48 89 e5             	mov    %rsp,%rbp
  40483a:	41 54                	push   %r12
  40483c:	53                   	push   %rbx
  40483d:	48 83 ec 10          	sub    $0x10,%rsp
  404841:	48 89 7d e8          	mov    %rdi,-0x18(%rbp)
  404845:	48 89 75 e0          	mov    %rsi,-0x20(%rbp)
  404849:	48 8b 45 e8          	mov    -0x18(%rbp),%rax
  40484d:	48 89 c7             	mov    %rax,%rdi
  404850:	e8 0b cd ff ff       	callq  401560 <_ZNKSt7__cxx1112basic_stringIcSt11char_traitsIcESaIcEE4sizeEv@plt>
  404855:	48 89 c3             	mov    %rax,%rbx
  404858:	48 8b 45 e0          	mov    -0x20(%rbp),%rax
  40485c:	48 89 c7             	mov    %rax,%rdi
  40485f:	e8 fc cc ff ff       	callq  401560 <_ZNKSt7__cxx1112basic_stringIcSt11char_traitsIcESaIcEE4sizeEv@plt>
  404864:	48 39 c3             	cmp    %rax,%rbx
  404867:	75 43                	jne    4048ac <_ZSteqIcEN9__gnu_cxx11__enable_ifIXsrSt9__is_charIT_E7__valueEbE6__typeERKNSt7__cxx1112basic_stringIS3_St11char_traitsIS3_ESaIS3_EEESE_+0x76>
  404869:	48 8b 45 e8          	mov    -0x18(%rbp),%rax
  40486d:	48 89 c7             	mov    %rax,%rdi
  404870:	e8 eb cc ff ff       	callq  401560 <_ZNKSt7__cxx1112basic_stringIcSt11char_traitsIcESaIcEE4sizeEv@plt>
  404875:	49 89 c4             	mov    %rax,%r12
  404878:	48 8b 45 e0          	mov    -0x20(%rbp),%rax
  40487c:	48 89 c7             	mov    %rax,%rdi
  40487f:	e8 6c cc ff ff       	callq  4014f0 <_ZNKSt7__cxx1112basic_stringIcSt11char_traitsIcESaIcEE4dataEv@plt>
  404884:	48 89 c3             	mov    %rax,%rbx
  404887:	48 8b 45 e8          	mov    -0x18(%rbp),%rax
  40488b:	48 89 c7             	mov    %rax,%rdi
  40488e:	e8 5d cc ff ff       	callq  4014f0 <_ZNKSt7__cxx1112basic_stringIcSt11char_traitsIcESaIcEE4dataEv@plt>
  404893:	4c 89 e2             	mov    %r12,%rdx
  404896:	48 89 de             	mov    %rbx,%rsi
  404899:	48 89 c7             	mov    %rax,%rdi
  40489c:	e8 91 fd ff ff       	callq  404632 <_ZNSt11char_traitsIcE7compareEPKcS2_m>
  4048a1:	85 c0                	test   %eax,%eax
  4048a3:	75 07                	jne    4048ac <_ZSteqIcEN9__gnu_cxx11__enable_ifIXsrSt9__is_charIT_E7__valueEbE6__typeERKNSt7__cxx1112basic_stringIS3_St11char_traitsIS3_ESaIS3_EEESE_+0x76>
  4048a5:	b8 01 00 00 00       	mov    $0x1,%eax
  4048aa:	eb 05                	jmp    4048b1 <_ZSteqIcEN9__gnu_cxx11__enable_ifIXsrSt9__is_charIT_E7__valueEbE6__typeERKNSt7__cxx1112basic_stringIS3_St11char_traitsIS3_ESaIS3_EEESE_+0x7b>
  4048ac:	b8 00 00 00 00       	mov    $0x0,%eax
  4048b1:	48 83 c4 10          	add    $0x10,%rsp
  4048b5:	5b                   	pop    %rbx
  4048b6:	41 5c                	pop    %r12
  4048b8:	5d                   	pop    %rbp
  4048b9:	c3                   	retq   

00000000004048ba <_ZNSt12_Vector_baseINSt7__cxx1112basic_stringIcSt11char_traitsIcESaIcEEESaIS5_EE12_Vector_implD1Ev>:
  4048ba:	55                   	push   %rbp
  4048bb:	48 89 e5             	mov    %rsp,%rbp
  4048be:	48 83 ec 10          	sub    $0x10,%rsp
  4048c2:	48 89 7d f8          	mov    %rdi,-0x8(%rbp)
  4048c6:	48 8b 45 f8          	mov    -0x8(%rbp),%rax
  4048ca:	48 89 c7             	mov    %rax,%rdi
  4048cd:	e8 3e 01 00 00       	callq  404a10 <_ZNSaINSt7__cxx1112basic_stringIcSt11char_traitsIcESaIcEEEED1Ev>
  4048d2:	90                   	nop
  4048d3:	c9                   	leaveq 
  4048d4:	c3                   	retq   
  4048d5:	90                   	nop

00000000004048d6 <_ZNSt12_Vector_baseINSt7__cxx1112basic_stringIcSt11char_traitsIcESaIcEEESaIS5_EEC1Ev>:
  4048d6:	55                   	push   %rbp
  4048d7:	48 89 e5             	mov    %rsp,%rbp
  4048da:	48 83 ec 10          	sub    $0x10,%rsp
  4048de:	48 89 7d f8          	mov    %rdi,-0x8(%rbp)
  4048e2:	48 8b 45 f8          	mov    -0x8(%rbp),%rax
  4048e6:	48 89 c7             	mov    %rax,%rdi
  4048e9:	e8 e4 00 00 00       	callq  4049d2 <_ZNSt12_Vector_baseINSt7__cxx1112basic_stringIcSt11char_traitsIcESaIcEEESaIS5_EE12_Vector_implC1Ev>
  4048ee:	90                   	nop
  4048ef:	c9                   	leaveq 
  4048f0:	c3                   	retq   
  4048f1:	90                   	nop

00000000004048f2 <_ZNSt12_Vector_baseINSt7__cxx1112basic_stringIcSt11char_traitsIcESaIcEEESaIS5_EED1Ev>:
  4048f2:	55                   	push   %rbp
  4048f3:	48 89 e5             	mov    %rsp,%rbp
  4048f6:	48 83 ec 10          	sub    $0x10,%rsp
  4048fa:	48 89 7d f8          	mov    %rdi,-0x8(%rbp)
  4048fe:	48 8b 45 f8          	mov    -0x8(%rbp),%rax
  404902:	48 8b 40 10          	mov    0x10(%rax),%rax
  404906:	48 89 c2             	mov    %rax,%rdx
  404909:	48 8b 45 f8          	mov    -0x8(%rbp),%rax
  40490d:	48 8b 00             	mov    (%rax),%rax
  404910:	48 29 c2             	sub    %rax,%rdx
  404913:	48 89 d0             	mov    %rdx,%rax
  404916:	48 c1 f8 05          	sar    $0x5,%rax
  40491a:	48 89 c2             	mov    %rax,%rdx
  40491d:	48 8b 45 f8          	mov    -0x8(%rbp),%rax
  404921:	48 8b 08             	mov    (%rax),%rcx
  404924:	48 8b 45 f8          	mov    -0x8(%rbp),%rax
  404928:	48 89 ce             	mov    %rcx,%rsi
  40492b:	48 89 c7             	mov    %rax,%rdi
  40492e:	e8 f9 00 00 00       	callq  404a2c <_ZNSt12_Vector_baseINSt7__cxx1112basic_stringIcSt11char_traitsIcESaIcEEESaIS5_EE13_M_deallocateEPS5_m>
  404933:	48 8b 45 f8          	mov    -0x8(%rbp),%rax
  404937:	48 89 c7             	mov    %rax,%rdi
  40493a:	e8 7b ff ff ff       	callq  4048ba <_ZNSt12_Vector_baseINSt7__cxx1112basic_stringIcSt11char_traitsIcESaIcEEESaIS5_EE12_Vector_implD1Ev>
  40493f:	90                   	nop
  404940:	c9                   	leaveq 
  404941:	c3                   	retq   

0000000000404942 <_ZSt7forwardINSt7__cxx1112basic_stringIcSt11char_traitsIcESaIcEEEEOT_RNSt16remove_referenceIS6_E4typeE>:
  404942:	55                   	push   %rbp
  404943:	48 89 e5             	mov    %rsp,%rbp
  404946:	48 89 7d f8          	mov    %rdi,-0x8(%rbp)
  40494a:	48 8b 45 f8          	mov    -0x8(%rbp),%rax
  40494e:	5d                   	pop    %rbp
  40494f:	c3                   	retq   

0000000000404950 <_ZNSt6vectorINSt7__cxx1112basic_stringIcSt11char_traitsIcESaIcEEESaIS5_EE12emplace_backIIS5_EEEvDpOT_>:
  404950:	55                   	push   %rbp
  404951:	48 89 e5             	mov    %rsp,%rbp
  404954:	48 83 ec 10          	sub    $0x10,%rsp
  404958:	48 89 7d f8          	mov    %rdi,-0x8(%rbp)
  40495c:	48 89 75 f0          	mov    %rsi,-0x10(%rbp)
  404960:	48 8b 45 f8          	mov    -0x8(%rbp),%rax
  404964:	48 8b 50 08          	mov    0x8(%rax),%rdx
  404968:	48 8b 45 f8          	mov    -0x8(%rbp),%rax
  40496c:	48 8b 40 10          	mov    0x10(%rax),%rax
  404970:	48 39 c2             	cmp    %rax,%rdx
  404973:	74 3c                	je     4049b1 <_ZNSt6vectorINSt7__cxx1112basic_stringIcSt11char_traitsIcESaIcEEESaIS5_EE12emplace_backIIS5_EEEvDpOT_+0x61>
  404975:	48 8b 45 f0          	mov    -0x10(%rbp),%rax
  404979:	48 89 c7             	mov    %rax,%rdi
  40497c:	e8 c1 ff ff ff       	callq  404942 <_ZSt7forwardINSt7__cxx1112basic_stringIcSt11char_traitsIcESaIcEEEEOT_RNSt16remove_referenceIS6_E4typeE>
  404981:	48 89 c2             	mov    %rax,%rdx
  404984:	48 8b 45 f8          	mov    -0x8(%rbp),%rax
  404988:	48 8b 48 08          	mov    0x8(%rax),%rcx
  40498c:	48 8b 45 f8          	mov    -0x8(%rbp),%rax
  404990:	48 89 ce             	mov    %rcx,%rsi
  404993:	48 89 c7             	mov    %rax,%rdi
  404996:	e8 c6 00 00 00       	callq  404a61 <_ZNSt16allocator_traitsISaINSt7__cxx1112basic_stringIcSt11char_traitsIcESaIcEEEEE9constructIS5_IS5_EEEvRS6_PT_DpOT0_>
  40499b:	48 8b 45 f8          	mov    -0x8(%rbp),%rax
  40499f:	48 8b 40 08          	mov    0x8(%rax),%rax
  4049a3:	48 8d 50 20          	lea    0x20(%rax),%rdx
  4049a7:	48 8b 45 f8          	mov    -0x8(%rbp),%rax
  4049ab:	48 89 50 08          	mov    %rdx,0x8(%rax)
  4049af:	eb 1e                	jmp    4049cf <_ZNSt6vectorINSt7__cxx1112basic_stringIcSt11char_traitsIcESaIcEEESaIS5_EE12emplace_backIIS5_EEEvDpOT_+0x7f>
  4049b1:	48 8b 45 f0          	mov    -0x10(%rbp),%rax
  4049b5:	48 89 c7             	mov    %rax,%rdi
  4049b8:	e8 85 ff ff ff       	callq  404942 <_ZSt7forwardINSt7__cxx1112basic_stringIcSt11char_traitsIcESaIcEEEEOT_RNSt16remove_referenceIS6_E4typeE>
  4049bd:	48 89 c2             	mov    %rax,%rdx
  4049c0:	48 8b 45 f8          	mov    -0x8(%rbp),%rax
  4049c4:	48 89 d6             	mov    %rdx,%rsi
  4049c7:	48 89 c7             	mov    %rax,%rdi
  4049ca:	e8 cb 00 00 00       	callq  404a9a <_ZNSt6vectorINSt7__cxx1112basic_stringIcSt11char_traitsIcESaIcEEESaIS5_EE19_M_emplace_back_auxIIS5_EEEvDpOT_>
  4049cf:	90                   	nop
  4049d0:	c9                   	leaveq 
  4049d1:	c3                   	retq   

00000000004049d2 <_ZNSt12_Vector_baseINSt7__cxx1112basic_stringIcSt11char_traitsIcESaIcEEESaIS5_EE12_Vector_implC1Ev>:
  4049d2:	55                   	push   %rbp
  4049d3:	48 89 e5             	mov    %rsp,%rbp
  4049d6:	48 83 ec 10          	sub    $0x10,%rsp
  4049da:	48 89 7d f8          	mov    %rdi,-0x8(%rbp)
  4049de:	48 8b 45 f8          	mov    -0x8(%rbp),%rax
  4049e2:	48 89 c7             	mov    %rax,%rdi
  4049e5:	e8 98 02 00 00       	callq  404c82 <_ZNSaINSt7__cxx1112basic_stringIcSt11char_traitsIcESaIcEEEEC1Ev>
  4049ea:	48 8b 45 f8          	mov    -0x8(%rbp),%rax
  4049ee:	48 c7 00 00 00 00 00 	movq   $0x0,(%rax)
  4049f5:	48 8b 45 f8          	mov    -0x8(%rbp),%rax
  4049f9:	48 c7 40 08 00 00 00 	movq   $0x0,0x8(%rax)
  404a00:	00 
  404a01:	48 8b 45 f8          	mov    -0x8(%rbp),%rax
  404a05:	48 c7 40 10 00 00 00 	movq   $0x0,0x10(%rax)
  404a0c:	00 
  404a0d:	90                   	nop
  404a0e:	c9                   	leaveq 
  404a0f:	c3                   	retq   

0000000000404a10 <_ZNSaINSt7__cxx1112basic_stringIcSt11char_traitsIcESaIcEEEED1Ev>:
  404a10:	55                   	push   %rbp
  404a11:	48 89 e5             	mov    %rsp,%rbp
  404a14:	48 83 ec 10          	sub    $0x10,%rsp
  404a18:	48 89 7d f8          	mov    %rdi,-0x8(%rbp)
  404a1c:	48 8b 45 f8          	mov    -0x8(%rbp),%rax
  404a20:	48 89 c7             	mov    %rax,%rdi
  404a23:	e8 76 02 00 00       	callq  404c9e <_ZN9__gnu_cxx13new_allocatorINSt7__cxx1112basic_stringIcSt11char_traitsIcESaIcEEEED1Ev>
  404a28:	90                   	nop
  404a29:	c9                   	leaveq 
  404a2a:	c3                   	retq   
  404a2b:	90                   	nop

0000000000404a2c <_ZNSt12_Vector_baseINSt7__cxx1112basic_stringIcSt11char_traitsIcESaIcEEESaIS5_EE13_M_deallocateEPS5_m>:
  404a2c:	55                   	push   %rbp
  404a2d:	48 89 e5             	mov    %rsp,%rbp
  404a30:	48 83 ec 20          	sub    $0x20,%rsp
  404a34:	48 89 7d f8          	mov    %rdi,-0x8(%rbp)
  404a38:	48 89 75 f0          	mov    %rsi,-0x10(%rbp)
  404a3c:	48 89 55 e8          	mov    %rdx,-0x18(%rbp)
  404a40:	48 83 7d f0 00       	cmpq   $0x0,-0x10(%rbp)
  404a45:	74 17                	je     404a5e <_ZNSt12_Vector_baseINSt7__cxx1112basic_stringIcSt11char_traitsIcESaIcEEESaIS5_EE13_M_deallocateEPS5_m+0x32>
  404a47:	48 8b 45 f8          	mov    -0x8(%rbp),%rax
  404a4b:	48 8b 55 e8          	mov    -0x18(%rbp),%rdx
  404a4f:	48 8b 4d f0          	mov    -0x10(%rbp),%rcx
  404a53:	48 89 ce             	mov    %rcx,%rsi
  404a56:	48 89 c7             	mov    %rax,%rdi
  404a59:	e8 4b 02 00 00       	callq  404ca9 <_ZNSt16allocator_traitsISaINSt7__cxx1112basic_stringIcSt11char_traitsIcESaIcEEEEE10deallocateERS6_PS5_m>
  404a5e:	90                   	nop
  404a5f:	c9                   	leaveq 
  404a60:	c3                   	retq   

0000000000404a61 <_ZNSt16allocator_traitsISaINSt7__cxx1112basic_stringIcSt11char_traitsIcESaIcEEEEE9constructIS5_IS5_EEEvRS6_PT_DpOT0_>:
  404a61:	55                   	push   %rbp
  404a62:	48 89 e5             	mov    %rsp,%rbp
  404a65:	48 83 ec 20          	sub    $0x20,%rsp
  404a69:	48 89 7d f8          	mov    %rdi,-0x8(%rbp)
  404a6d:	48 89 75 f0          	mov    %rsi,-0x10(%rbp)
  404a71:	48 89 55 e8          	mov    %rdx,-0x18(%rbp)
  404a75:	48 8b 45 e8          	mov    -0x18(%rbp),%rax
  404a79:	48 89 c7             	mov    %rax,%rdi
  404a7c:	e8 c1 fe ff ff       	callq  404942 <_ZSt7forwardINSt7__cxx1112basic_stringIcSt11char_traitsIcESaIcEEEEOT_RNSt16remove_referenceIS6_E4typeE>
  404a81:	48 89 c2             	mov    %rax,%rdx
  404a84:	48 8b 4d f0          	mov    -0x10(%rbp),%rcx
  404a88:	48 8b 45 f8          	mov    -0x8(%rbp),%rax
  404a8c:	48 89 ce             	mov    %rcx,%rsi
  404a8f:	48 89 c7             	mov    %rax,%rdi
  404a92:	e8 41 02 00 00       	callq  404cd8 <_ZN9__gnu_cxx13new_allocatorINSt7__cxx1112basic_stringIcSt11char_traitsIcESaIcEEEE9constructIS6_IS6_EEEvPT_DpOT0_>
  404a97:	90                   	nop
  404a98:	c9                   	leaveq 
  404a99:	c3                   	retq   

0000000000404a9a <_ZNSt6vectorINSt7__cxx1112basic_stringIcSt11char_traitsIcESaIcEEESaIS5_EE19_M_emplace_back_auxIIS5_EEEvDpOT_>:
  404a9a:	55                   	push   %rbp
  404a9b:	48 89 e5             	mov    %rsp,%rbp
  404a9e:	53                   	push   %rbx
  404a9f:	48 83 ec 38          	sub    $0x38,%rsp
  404aa3:	48 89 7d c8          	mov    %rdi,-0x38(%rbp)
  404aa7:	48 89 75 c0          	mov    %rsi,-0x40(%rbp)
  404aab:	48 8b 45 c8          	mov    -0x38(%rbp),%rax
  404aaf:	ba 1d 5c 40 00       	mov    $0x405c1d,%edx
  404ab4:	be 01 00 00 00       	mov    $0x1,%esi
  404ab9:	48 89 c7             	mov    %rax,%rdi
  404abc:	e8 65 02 00 00       	callq  404d26 <_ZNKSt6vectorINSt7__cxx1112basic_stringIcSt11char_traitsIcESaIcEEESaIS5_EE12_M_check_lenEmPKc>
  404ac1:	48 89 45 e0          	mov    %rax,-0x20(%rbp)
  404ac5:	48 8b 45 c8          	mov    -0x38(%rbp),%rax
  404ac9:	48 8b 55 e0          	mov    -0x20(%rbp),%rdx
  404acd:	48 89 d6             	mov    %rdx,%rsi
  404ad0:	48 89 c7             	mov    %rax,%rdi
  404ad3:	e8 3a 03 00 00       	callq  404e12 <_ZNSt12_Vector_baseINSt7__cxx1112basic_stringIcSt11char_traitsIcESaIcEEESaIS5_EE11_M_allocateEm>
  404ad8:	48 89 45 e8          	mov    %rax,-0x18(%rbp)
  404adc:	48 8b 45 e8          	mov    -0x18(%rbp),%rax
  404ae0:	48 89 45 d8          	mov    %rax,-0x28(%rbp)
  404ae4:	48 8b 45 c0          	mov    -0x40(%rbp),%rax
  404ae8:	48 89 c7             	mov    %rax,%rdi
  404aeb:	e8 52 fe ff ff       	callq  404942 <_ZSt7forwardINSt7__cxx1112basic_stringIcSt11char_traitsIcESaIcEEEEOT_RNSt16remove_referenceIS6_E4typeE>
  404af0:	48 89 c3             	mov    %rax,%rbx
  404af3:	48 8b 45 c8          	mov    -0x38(%rbp),%rax
  404af7:	48 89 c7             	mov    %rax,%rdi
  404afa:	e8 f1 fc ff ff       	callq  4047f0 <_ZNKSt6vectorINSt7__cxx1112basic_stringIcSt11char_traitsIcESaIcEEESaIS5_EE4sizeEv>
  404aff:	48 c1 e0 05          	shl    $0x5,%rax
  404b03:	48 89 c2             	mov    %rax,%rdx
  404b06:	48 8b 45 e8          	mov    -0x18(%rbp),%rax
  404b0a:	48 8d 0c 02          	lea    (%rdx,%rax,1),%rcx
  404b0e:	48 8b 45 c8          	mov    -0x38(%rbp),%rax
  404b12:	48 89 da             	mov    %rbx,%rdx
  404b15:	48 89 ce             	mov    %rcx,%rsi
  404b18:	48 89 c7             	mov    %rax,%rdi
  404b1b:	e8 41 ff ff ff       	callq  404a61 <_ZNSt16allocator_traitsISaINSt7__cxx1112basic_stringIcSt11char_traitsIcESaIcEEEEE9constructIS5_IS5_EEEvRS6_PT_DpOT0_>
  404b20:	48 c7 45 d8 00 00 00 	movq   $0x0,-0x28(%rbp)
  404b27:	00 
  404b28:	48 8b 45 c8          	mov    -0x38(%rbp),%rax
  404b2c:	48 89 c7             	mov    %rax,%rdi
  404b2f:	e8 12 03 00 00       	callq  404e46 <_ZNSt12_Vector_baseINSt7__cxx1112basic_stringIcSt11char_traitsIcESaIcEEESaIS5_EE19_M_get_Tp_allocatorEv>
  404b34:	48 89 c1             	mov    %rax,%rcx
  404b37:	48 8b 45 c8          	mov    -0x38(%rbp),%rax
  404b3b:	48 8b 70 08          	mov    0x8(%rax),%rsi
  404b3f:	48 8b 45 c8          	mov    -0x38(%rbp),%rax
  404b43:	48 8b 00             	mov    (%rax),%rax
  404b46:	48 8b 55 e8          	mov    -0x18(%rbp),%rdx
  404b4a:	48 89 c7             	mov    %rax,%rdi
  404b4d:	e8 02 03 00 00       	callq  404e54 <_ZSt34__uninitialized_move_if_noexcept_aIPNSt7__cxx1112basic_stringIcSt11char_traitsIcESaIcEEES6_SaIS5_EET0_T_S9_S8_RT1_>
  404b52:	48 89 45 d8          	mov    %rax,-0x28(%rbp)
  404b56:	48 83 45 d8 20       	addq   $0x20,-0x28(%rbp)
  404b5b:	48 8b 45 c8          	mov    -0x38(%rbp),%rax
  404b5f:	48 89 c7             	mov    %rax,%rdi
  404b62:	e8 df 02 00 00       	callq  404e46 <_ZNSt12_Vector_baseINSt7__cxx1112basic_stringIcSt11char_traitsIcESaIcEEESaIS5_EE19_M_get_Tp_allocatorEv>
  404b67:	48 89 c2             	mov    %rax,%rdx
  404b6a:	48 8b 45 c8          	mov    -0x38(%rbp),%rax
  404b6e:	48 8b 48 08          	mov    0x8(%rax),%rcx
  404b72:	48 8b 45 c8          	mov    -0x38(%rbp),%rax
  404b76:	48 8b 00             	mov    (%rax),%rax
  404b79:	48 89 ce             	mov    %rcx,%rsi
  404b7c:	48 89 c7             	mov    %rax,%rdi
  404b7f:	e8 4a 03 00 00       	callq  404ece <_ZSt8_DestroyIPNSt7__cxx1112basic_stringIcSt11char_traitsIcESaIcEEES5_EvT_S7_RSaIT0_E>
  404b84:	48 8b 45 c8          	mov    -0x38(%rbp),%rax
  404b88:	48 8b 40 10          	mov    0x10(%rax),%rax
  404b8c:	48 89 c2             	mov    %rax,%rdx
  404b8f:	48 8b 45 c8          	mov    -0x38(%rbp),%rax
  404b93:	48 8b 00             	mov    (%rax),%rax
  404b96:	48 29 c2             	sub    %rax,%rdx
  404b99:	48 89 d0             	mov    %rdx,%rax
  404b9c:	48 c1 f8 05          	sar    $0x5,%rax
  404ba0:	48 89 c2             	mov    %rax,%rdx
  404ba3:	48 8b 45 c8          	mov    -0x38(%rbp),%rax
  404ba7:	48 8b 08             	mov    (%rax),%rcx
  404baa:	48 8b 45 c8          	mov    -0x38(%rbp),%rax
  404bae:	48 89 ce             	mov    %rcx,%rsi
  404bb1:	48 89 c7             	mov    %rax,%rdi
  404bb4:	e8 73 fe ff ff       	callq  404a2c <_ZNSt12_Vector_baseINSt7__cxx1112basic_stringIcSt11char_traitsIcESaIcEEESaIS5_EE13_M_deallocateEPS5_m>
  404bb9:	48 8b 45 c8          	mov    -0x38(%rbp),%rax
  404bbd:	48 8b 55 e8          	mov    -0x18(%rbp),%rdx
  404bc1:	48 89 10             	mov    %rdx,(%rax)
  404bc4:	48 8b 45 c8          	mov    -0x38(%rbp),%rax
  404bc8:	48 8b 55 d8          	mov    -0x28(%rbp),%rdx
  404bcc:	48 89 50 08          	mov    %rdx,0x8(%rax)
  404bd0:	48 8b 45 e0          	mov    -0x20(%rbp),%rax
  404bd4:	48 c1 e0 05          	shl    $0x5,%rax
  404bd8:	48 89 c2             	mov    %rax,%rdx
  404bdb:	48 8b 45 e8          	mov    -0x18(%rbp),%rax
  404bdf:	48 01 c2             	add    %rax,%rdx
  404be2:	48 8b 45 c8          	mov    -0x38(%rbp),%rax
  404be6:	48 89 50 10          	mov    %rdx,0x10(%rax)
  404bea:	e9 8b 00 00 00       	jmpq   404c7a <_ZNSt6vectorINSt7__cxx1112basic_stringIcSt11char_traitsIcESaIcEEESaIS5_EE19_M_emplace_back_auxIIS5_EEEvDpOT_+0x1e0>
  404bef:	48 89 c7             	mov    %rax,%rdi
  404bf2:	e8 e9 c9 ff ff       	callq  4015e0 <__cxa_begin_catch@plt>
  404bf7:	48 83 7d d8 00       	cmpq   $0x0,-0x28(%rbp)
  404bfc:	75 2b                	jne    404c29 <_ZNSt6vectorINSt7__cxx1112basic_stringIcSt11char_traitsIcESaIcEEESaIS5_EE19_M_emplace_back_auxIIS5_EEEvDpOT_+0x18f>
  404bfe:	48 8b 45 c8          	mov    -0x38(%rbp),%rax
  404c02:	48 89 c7             	mov    %rax,%rdi
  404c05:	e8 e6 fb ff ff       	callq  4047f0 <_ZNKSt6vectorINSt7__cxx1112basic_stringIcSt11char_traitsIcESaIcEEESaIS5_EE4sizeEv>
  404c0a:	48 c1 e0 05          	shl    $0x5,%rax
  404c0e:	48 89 c2             	mov    %rax,%rdx
  404c11:	48 8b 45 e8          	mov    -0x18(%rbp),%rax
  404c15:	48 01 c2             	add    %rax,%rdx
  404c18:	48 8b 45 c8          	mov    -0x38(%rbp),%rax
  404c1c:	48 89 d6             	mov    %rdx,%rsi
  404c1f:	48 89 c7             	mov    %rax,%rdi
  404c22:	e8 81 02 00 00       	callq  404ea8 <_ZNSt16allocator_traitsISaINSt7__cxx1112basic_stringIcSt11char_traitsIcESaIcEEEEE7destroyIS5_EEvRS6_PT_>
  404c27:	eb 22                	jmp    404c4b <_ZNSt6vectorINSt7__cxx1112basic_stringIcSt11char_traitsIcESaIcEEESaIS5_EE19_M_emplace_back_auxIIS5_EEEvDpOT_+0x1b1>
  404c29:	48 8b 45 c8          	mov    -0x38(%rbp),%rax
  404c2d:	48 89 c7             	mov    %rax,%rdi
  404c30:	e8 11 02 00 00       	callq  404e46 <_ZNSt12_Vector_baseINSt7__cxx1112basic_stringIcSt11char_traitsIcESaIcEEESaIS5_EE19_M_get_Tp_allocatorEv>
  404c35:	48 89 c2             	mov    %rax,%rdx
  404c38:	48 8b 4d d8          	mov    -0x28(%rbp),%rcx
  404c3c:	48 8b 45 e8          	mov    -0x18(%rbp),%rax
  404c40:	48 89 ce             	mov    %rcx,%rsi
  404c43:	48 89 c7             	mov    %rax,%rdi
  404c46:	e8 83 02 00 00       	callq  404ece <_ZSt8_DestroyIPNSt7__cxx1112basic_stringIcSt11char_traitsIcESaIcEEES5_EvT_S7_RSaIT0_E>
  404c4b:	48 8b 45 c8          	mov    -0x38(%rbp),%rax
  404c4f:	48 8b 55 e0          	mov    -0x20(%rbp),%rdx
  404c53:	48 8b 4d e8          	mov    -0x18(%rbp),%rcx
  404c57:	48 89 ce             	mov    %rcx,%rsi
  404c5a:	48 89 c7             	mov    %rax,%rdi
  404c5d:	e8 ca fd ff ff       	callq  404a2c <_ZNSt12_Vector_baseINSt7__cxx1112basic_stringIcSt11char_traitsIcESaIcEEESaIS5_EE13_M_deallocateEPS5_m>
  404c62:	e8 c9 c7 ff ff       	callq  401430 <__cxa_rethrow@plt>
  404c67:	48 89 c3             	mov    %rax,%rbx
  404c6a:	e8 21 c9 ff ff       	callq  401590 <__cxa_end_catch@plt>
  404c6f:	48 89 d8             	mov    %rbx,%rax
  404c72:	48 89 c7             	mov    %rax,%rdi
  404c75:	e8 f6 c9 ff ff       	callq  401670 <_Unwind_Resume@plt>
  404c7a:	48 83 c4 38          	add    $0x38,%rsp
  404c7e:	5b                   	pop    %rbx
  404c7f:	5d                   	pop    %rbp
  404c80:	c3                   	retq   
  404c81:	90                   	nop

0000000000404c82 <_ZNSaINSt7__cxx1112basic_stringIcSt11char_traitsIcESaIcEEEEC1Ev>:
  404c82:	55                   	push   %rbp
  404c83:	48 89 e5             	mov    %rsp,%rbp
  404c86:	48 83 ec 10          	sub    $0x10,%rsp
  404c8a:	48 89 7d f8          	mov    %rdi,-0x8(%rbp)
  404c8e:	48 8b 45 f8          	mov    -0x8(%rbp),%rax
  404c92:	48 89 c7             	mov    %rax,%rdi
  404c95:	e8 5e 02 00 00       	callq  404ef8 <_ZN9__gnu_cxx13new_allocatorINSt7__cxx1112basic_stringIcSt11char_traitsIcESaIcEEEEC1Ev>
  404c9a:	90                   	nop
  404c9b:	c9                   	leaveq 
  404c9c:	c3                   	retq   
  404c9d:	90                   	nop

0000000000404c9e <_ZN9__gnu_cxx13new_allocatorINSt7__cxx1112basic_stringIcSt11char_traitsIcESaIcEEEED1Ev>:
  404c9e:	55                   	push   %rbp
  404c9f:	48 89 e5             	mov    %rsp,%rbp
  404ca2:	48 89 7d f8          	mov    %rdi,-0x8(%rbp)
  404ca6:	90                   	nop
  404ca7:	5d                   	pop    %rbp
  404ca8:	c3                   	retq   

0000000000404ca9 <_ZNSt16allocator_traitsISaINSt7__cxx1112basic_stringIcSt11char_traitsIcESaIcEEEEE10deallocateERS6_PS5_m>:
  404ca9:	55                   	push   %rbp
  404caa:	48 89 e5             	mov    %rsp,%rbp
  404cad:	48 83 ec 20          	sub    $0x20,%rsp
  404cb1:	48 89 7d f8          	mov    %rdi,-0x8(%rbp)
  404cb5:	48 89 75 f0          	mov    %rsi,-0x10(%rbp)
  404cb9:	48 89 55 e8          	mov    %rdx,-0x18(%rbp)
  404cbd:	48 8b 55 e8          	mov    -0x18(%rbp),%rdx
  404cc1:	48 8b 4d f0          	mov    -0x10(%rbp),%rcx
  404cc5:	48 8b 45 f8          	mov    -0x8(%rbp),%rax
  404cc9:	48 89 ce             	mov    %rcx,%rsi
  404ccc:	48 89 c7             	mov    %rax,%rdi
  404ccf:	e8 30 02 00 00       	callq  404f04 <_ZN9__gnu_cxx13new_allocatorINSt7__cxx1112basic_stringIcSt11char_traitsIcESaIcEEEE10deallocateEPS6_m>
  404cd4:	90                   	nop
  404cd5:	c9                   	leaveq 
  404cd6:	c3                   	retq   
  404cd7:	90                   	nop

0000000000404cd8 <_ZN9__gnu_cxx13new_allocatorINSt7__cxx1112basic_stringIcSt11char_traitsIcESaIcEEEE9constructIS6_IS6_EEEvPT_DpOT0_>:
  404cd8:	55                   	push   %rbp
  404cd9:	48 89 e5             	mov    %rsp,%rbp
  404cdc:	53                   	push   %rbx
  404cdd:	48 83 ec 28          	sub    $0x28,%rsp
  404ce1:	48 89 7d e8          	mov    %rdi,-0x18(%rbp)
  404ce5:	48 89 75 e0          	mov    %rsi,-0x20(%rbp)
  404ce9:	48 89 55 d8          	mov    %rdx,-0x28(%rbp)
  404ced:	48 8b 45 d8          	mov    -0x28(%rbp),%rax
  404cf1:	48 89 c7             	mov    %rax,%rdi
  404cf4:	e8 49 fc ff ff       	callq  404942 <_ZSt7forwardINSt7__cxx1112basic_stringIcSt11char_traitsIcESaIcEEEEOT_RNSt16remove_referenceIS6_E4typeE>
  404cf9:	48 89 c3             	mov    %rax,%rbx
  404cfc:	48 8b 45 e0          	mov    -0x20(%rbp),%rax
  404d00:	48 89 c6             	mov    %rax,%rsi
  404d03:	bf 20 00 00 00       	mov    $0x20,%edi
  404d08:	e8 60 f9 ff ff       	callq  40466d <_ZnwmPv>
  404d0d:	48 85 c0             	test   %rax,%rax
  404d10:	74 0b                	je     404d1d <_ZN9__gnu_cxx13new_allocatorINSt7__cxx1112basic_stringIcSt11char_traitsIcESaIcEEEE9constructIS6_IS6_EEEvPT_DpOT0_+0x45>
  404d12:	48 89 de             	mov    %rbx,%rsi
  404d15:	48 89 c7             	mov    %rax,%rdi
  404d18:	e8 a3 c7 ff ff       	callq  4014c0 <_ZNSt7__cxx1112basic_stringIcSt11char_traitsIcESaIcEEC1EOS4_@plt>
  404d1d:	90                   	nop
  404d1e:	48 83 c4 28          	add    $0x28,%rsp
  404d22:	5b                   	pop    %rbx
  404d23:	5d                   	pop    %rbp
  404d24:	c3                   	retq   
  404d25:	90                   	nop

0000000000404d26 <_ZNKSt6vectorINSt7__cxx1112basic_stringIcSt11char_traitsIcESaIcEEESaIS5_EE12_M_check_lenEmPKc>:
  404d26:	55                   	push   %rbp
  404d27:	48 89 e5             	mov    %rsp,%rbp
  404d2a:	53                   	push   %rbx
  404d2b:	48 83 ec 48          	sub    $0x48,%rsp
  404d2f:	48 89 7d c8          	mov    %rdi,-0x38(%rbp)
  404d33:	48 89 75 c0          	mov    %rsi,-0x40(%rbp)
  404d37:	48 89 55 b8          	mov    %rdx,-0x48(%rbp)
  404d3b:	64 48 8b 04 25 28 00 	mov    %fs:0x28,%rax
  404d42:	00 00 
  404d44:	48 89 45 e8          	mov    %rax,-0x18(%rbp)
  404d48:	31 c0                	xor    %eax,%eax
  404d4a:	48 8b 45 c8          	mov    -0x38(%rbp),%rax
  404d4e:	48 89 c7             	mov    %rax,%rdi
  404d51:	e8 d2 01 00 00       	callq  404f28 <_ZNKSt6vectorINSt7__cxx1112basic_stringIcSt11char_traitsIcESaIcEEESaIS5_EE8max_sizeEv>
  404d56:	48 89 c3             	mov    %rax,%rbx
  404d59:	48 8b 45 c8          	mov    -0x38(%rbp),%rax
  404d5d:	48 89 c7             	mov    %rax,%rdi
  404d60:	e8 8b fa ff ff       	callq  4047f0 <_ZNKSt6vectorINSt7__cxx1112basic_stringIcSt11char_traitsIcESaIcEEESaIS5_EE4sizeEv>
  404d65:	48 29 c3             	sub    %rax,%rbx
  404d68:	48 89 da             	mov    %rbx,%rdx
  404d6b:	48 8b 45 c0          	mov    -0x40(%rbp),%rax
  404d6f:	48 39 c2             	cmp    %rax,%rdx
  404d72:	0f 92 c0             	setb   %al
  404d75:	84 c0                	test   %al,%al
  404d77:	74 0c                	je     404d85 <_ZNKSt6vectorINSt7__cxx1112basic_stringIcSt11char_traitsIcESaIcEEESaIS5_EE12_M_check_lenEmPKc+0x5f>
  404d79:	48 8b 45 b8          	mov    -0x48(%rbp),%rax
  404d7d:	48 89 c7             	mov    %rax,%rdi
  404d80:	e8 4b c6 ff ff       	callq  4013d0 <_ZSt20__throw_length_errorPKc@plt>
  404d85:	48 8b 45 c8          	mov    -0x38(%rbp),%rax
  404d89:	48 89 c7             	mov    %rax,%rdi
  404d8c:	e8 5f fa ff ff       	callq  4047f0 <_ZNKSt6vectorINSt7__cxx1112basic_stringIcSt11char_traitsIcESaIcEEESaIS5_EE4sizeEv>
  404d91:	48 89 c3             	mov    %rax,%rbx
  404d94:	48 8b 45 c8          	mov    -0x38(%rbp),%rax
  404d98:	48 89 c7             	mov    %rax,%rdi
  404d9b:	e8 50 fa ff ff       	callq  4047f0 <_ZNKSt6vectorINSt7__cxx1112basic_stringIcSt11char_traitsIcESaIcEEESaIS5_EE4sizeEv>
  404da0:	48 89 45 d8          	mov    %rax,-0x28(%rbp)
  404da4:	48 8d 55 c0          	lea    -0x40(%rbp),%rdx
  404da8:	48 8d 45 d8          	lea    -0x28(%rbp),%rax
  404dac:	48 89 d6             	mov    %rdx,%rsi
  404daf:	48 89 c7             	mov    %rax,%rdi
  404db2:	e8 93 01 00 00       	callq  404f4a <_ZSt3maxImERKT_S2_S2_>
  404db7:	48 8b 00             	mov    (%rax),%rax
  404dba:	48 01 d8             	add    %rbx,%rax
  404dbd:	48 89 45 e0          	mov    %rax,-0x20(%rbp)
  404dc1:	48 8b 45 c8          	mov    -0x38(%rbp),%rax
  404dc5:	48 89 c7             	mov    %rax,%rdi
  404dc8:	e8 23 fa ff ff       	callq  4047f0 <_ZNKSt6vectorINSt7__cxx1112basic_stringIcSt11char_traitsIcESaIcEEESaIS5_EE4sizeEv>
  404dcd:	48 3b 45 e0          	cmp    -0x20(%rbp),%rax
  404dd1:	77 12                	ja     404de5 <_ZNKSt6vectorINSt7__cxx1112basic_stringIcSt11char_traitsIcESaIcEEESaIS5_EE12_M_check_lenEmPKc+0xbf>
  404dd3:	48 8b 45 c8          	mov    -0x38(%rbp),%rax
  404dd7:	48 89 c7             	mov    %rax,%rdi
  404dda:	e8 49 01 00 00       	callq  404f28 <_ZNKSt6vectorINSt7__cxx1112basic_stringIcSt11char_traitsIcESaIcEEESaIS5_EE8max_sizeEv>
  404ddf:	48 3b 45 e0          	cmp    -0x20(%rbp),%rax
  404de3:	73 0e                	jae    404df3 <_ZNKSt6vectorINSt7__cxx1112basic_stringIcSt11char_traitsIcESaIcEEESaIS5_EE12_M_check_lenEmPKc+0xcd>
  404de5:	48 8b 45 c8          	mov    -0x38(%rbp),%rax
  404de9:	48 89 c7             	mov    %rax,%rdi
  404dec:	e8 37 01 00 00       	callq  404f28 <_ZNKSt6vectorINSt7__cxx1112basic_stringIcSt11char_traitsIcESaIcEEESaIS5_EE8max_sizeEv>
  404df1:	eb 04                	jmp    404df7 <_ZNKSt6vectorINSt7__cxx1112basic_stringIcSt11char_traitsIcESaIcEEESaIS5_EE12_M_check_lenEmPKc+0xd1>
  404df3:	48 8b 45 e0          	mov    -0x20(%rbp),%rax
  404df7:	48 8b 4d e8          	mov    -0x18(%rbp),%rcx
  404dfb:	64 48 33 0c 25 28 00 	xor    %fs:0x28,%rcx
  404e02:	00 00 
  404e04:	74 05                	je     404e0b <_ZNKSt6vectorINSt7__cxx1112basic_stringIcSt11char_traitsIcESaIcEEESaIS5_EE12_M_check_lenEmPKc+0xe5>
  404e06:	e8 15 c7 ff ff       	callq  401520 <__stack_chk_fail@plt>
  404e0b:	48 83 c4 48          	add    $0x48,%rsp
  404e0f:	5b                   	pop    %rbx
  404e10:	5d                   	pop    %rbp
  404e11:	c3                   	retq   

0000000000404e12 <_ZNSt12_Vector_baseINSt7__cxx1112basic_stringIcSt11char_traitsIcESaIcEEESaIS5_EE11_M_allocateEm>:
  404e12:	55                   	push   %rbp
  404e13:	48 89 e5             	mov    %rsp,%rbp
  404e16:	48 83 ec 10          	sub    $0x10,%rsp
  404e1a:	48 89 7d f8          	mov    %rdi,-0x8(%rbp)
  404e1e:	48 89 75 f0          	mov    %rsi,-0x10(%rbp)
  404e22:	48 83 7d f0 00       	cmpq   $0x0,-0x10(%rbp)
  404e27:	74 15                	je     404e3e <_ZNSt12_Vector_baseINSt7__cxx1112basic_stringIcSt11char_traitsIcESaIcEEESaIS5_EE11_M_allocateEm+0x2c>
  404e29:	48 8b 45 f8          	mov    -0x8(%rbp),%rax
  404e2d:	48 8b 55 f0          	mov    -0x10(%rbp),%rdx
  404e31:	48 89 d6             	mov    %rdx,%rsi
  404e34:	48 89 c7             	mov    %rax,%rdi
  404e37:	e8 39 01 00 00       	callq  404f75 <_ZNSt16allocator_traitsISaINSt7__cxx1112basic_stringIcSt11char_traitsIcESaIcEEEEE8allocateERS6_m>
  404e3c:	eb 05                	jmp    404e43 <_ZNSt12_Vector_baseINSt7__cxx1112basic_stringIcSt11char_traitsIcESaIcEEESaIS5_EE11_M_allocateEm+0x31>
  404e3e:	b8 00 00 00 00       	mov    $0x0,%eax
  404e43:	c9                   	leaveq 
  404e44:	c3                   	retq   
  404e45:	90                   	nop

0000000000404e46 <_ZNSt12_Vector_baseINSt7__cxx1112basic_stringIcSt11char_traitsIcESaIcEEESaIS5_EE19_M_get_Tp_allocatorEv>:
  404e46:	55                   	push   %rbp
  404e47:	48 89 e5             	mov    %rsp,%rbp
  404e4a:	48 89 7d f8          	mov    %rdi,-0x8(%rbp)
  404e4e:	48 8b 45 f8          	mov    -0x8(%rbp),%rax
  404e52:	5d                   	pop    %rbp
  404e53:	c3                   	retq   

0000000000404e54 <_ZSt34__uninitialized_move_if_noexcept_aIPNSt7__cxx1112basic_stringIcSt11char_traitsIcESaIcEEES6_SaIS5_EET0_T_S9_S8_RT1_>:
  404e54:	55                   	push   %rbp
  404e55:	48 89 e5             	mov    %rsp,%rbp
  404e58:	53                   	push   %rbx
  404e59:	48 83 ec 28          	sub    $0x28,%rsp
  404e5d:	48 89 7d e8          	mov    %rdi,-0x18(%rbp)
  404e61:	48 89 75 e0          	mov    %rsi,-0x20(%rbp)
  404e65:	48 89 55 d8          	mov    %rdx,-0x28(%rbp)
  404e69:	48 89 4d d0          	mov    %rcx,-0x30(%rbp)
  404e6d:	48 8b 45 e0          	mov    -0x20(%rbp),%rax
  404e71:	48 89 c7             	mov    %rax,%rdi
  404e74:	e8 26 01 00 00       	callq  404f9f <_ZSt32__make_move_if_noexcept_iteratorIPNSt7__cxx1112basic_stringIcSt11char_traitsIcESaIcEEESt13move_iteratorIS6_EET0_T_>
  404e79:	48 89 c3             	mov    %rax,%rbx
  404e7c:	48 8b 45 e8          	mov    -0x18(%rbp),%rax
  404e80:	48 89 c7             	mov    %rax,%rdi
  404e83:	e8 17 01 00 00       	callq  404f9f <_ZSt32__make_move_if_noexcept_iteratorIPNSt7__cxx1112basic_stringIcSt11char_traitsIcESaIcEEESt13move_iteratorIS6_EET0_T_>
  404e88:	48 89 c7             	mov    %rax,%rdi
  404e8b:	48 8b 55 d0          	mov    -0x30(%rbp),%rdx
  404e8f:	48 8b 45 d8          	mov    -0x28(%rbp),%rax
  404e93:	48 89 d1             	mov    %rdx,%rcx
  404e96:	48 89 c2             	mov    %rax,%rdx
  404e99:	48 89 de             	mov    %rbx,%rsi
  404e9c:	e8 46 01 00 00       	callq  404fe7 <_ZSt22__uninitialized_copy_aISt13move_iteratorIPNSt7__cxx1112basic_stringIcSt11char_traitsIcESaIcEEEES7_S6_ET0_T_SA_S9_RSaIT1_E>
  404ea1:	48 83 c4 28          	add    $0x28,%rsp
  404ea5:	5b                   	pop    %rbx
  404ea6:	5d                   	pop    %rbp
  404ea7:	c3                   	retq   

0000000000404ea8 <_ZNSt16allocator_traitsISaINSt7__cxx1112basic_stringIcSt11char_traitsIcESaIcEEEEE7destroyIS5_EEvRS6_PT_>:
  404ea8:	55                   	push   %rbp
  404ea9:	48 89 e5             	mov    %rsp,%rbp
  404eac:	48 83 ec 10          	sub    $0x10,%rsp
  404eb0:	48 89 7d f8          	mov    %rdi,-0x8(%rbp)
  404eb4:	48 89 75 f0          	mov    %rsi,-0x10(%rbp)
  404eb8:	48 8b 55 f0          	mov    -0x10(%rbp),%rdx
  404ebc:	48 8b 45 f8          	mov    -0x8(%rbp),%rax
  404ec0:	48 89 d6             	mov    %rdx,%rsi
  404ec3:	48 89 c7             	mov    %rax,%rdi
  404ec6:	e8 4d 01 00 00       	callq  405018 <_ZN9__gnu_cxx13new_allocatorINSt7__cxx1112basic_stringIcSt11char_traitsIcESaIcEEEE7destroyIS6_EEvPT_>
  404ecb:	90                   	nop
  404ecc:	c9                   	leaveq 
  404ecd:	c3                   	retq   

0000000000404ece <_ZSt8_DestroyIPNSt7__cxx1112basic_stringIcSt11char_traitsIcESaIcEEES5_EvT_S7_RSaIT0_E>:
  404ece:	55                   	push   %rbp
  404ecf:	48 89 e5             	mov    %rsp,%rbp
  404ed2:	48 83 ec 20          	sub    $0x20,%rsp
  404ed6:	48 89 7d f8          	mov    %rdi,-0x8(%rbp)
  404eda:	48 89 75 f0          	mov    %rsi,-0x10(%rbp)
  404ede:	48 89 55 e8          	mov    %rdx,-0x18(%rbp)
  404ee2:	48 8b 55 f0          	mov    -0x10(%rbp),%rdx
  404ee6:	48 8b 45 f8          	mov    -0x8(%rbp),%rax
  404eea:	48 89 d6             	mov    %rdx,%rsi
  404eed:	48 89 c7             	mov    %rax,%rdi
  404ef0:	e8 42 01 00 00       	callq  405037 <_ZSt8_DestroyIPNSt7__cxx1112basic_stringIcSt11char_traitsIcESaIcEEEEvT_S7_>
  404ef5:	90                   	nop
  404ef6:	c9                   	leaveq 
  404ef7:	c3                   	retq   

0000000000404ef8 <_ZN9__gnu_cxx13new_allocatorINSt7__cxx1112basic_stringIcSt11char_traitsIcESaIcEEEEC1Ev>:
  404ef8:	55                   	push   %rbp
  404ef9:	48 89 e5             	mov    %rsp,%rbp
  404efc:	48 89 7d f8          	mov    %rdi,-0x8(%rbp)
  404f00:	90                   	nop
  404f01:	5d                   	pop    %rbp
  404f02:	c3                   	retq   
  404f03:	90                   	nop

0000000000404f04 <_ZN9__gnu_cxx13new_allocatorINSt7__cxx1112basic_stringIcSt11char_traitsIcESaIcEEEE10deallocateEPS6_m>:
  404f04:	55                   	push   %rbp
  404f05:	48 89 e5             	mov    %rsp,%rbp
  404f08:	48 83 ec 20          	sub    $0x20,%rsp
  404f0c:	48 89 7d f8          	mov    %rdi,-0x8(%rbp)
  404f10:	48 89 75 f0          	mov    %rsi,-0x10(%rbp)
  404f14:	48 89 55 e8          	mov    %rdx,-0x18(%rbp)
  404f18:	48 8b 45 f0          	mov    -0x10(%rbp),%rax
  404f1c:	48 89 c7             	mov    %rax,%rdi
  404f1f:	e8 fc c4 ff ff       	callq  401420 <_ZdlPv@plt>
  404f24:	90                   	nop
  404f25:	c9                   	leaveq 
  404f26:	c3                   	retq   
  404f27:	90                   	nop

0000000000404f28 <_ZNKSt6vectorINSt7__cxx1112basic_stringIcSt11char_traitsIcESaIcEEESaIS5_EE8max_sizeEv>:
  404f28:	55                   	push   %rbp
  404f29:	48 89 e5             	mov    %rsp,%rbp
  404f2c:	48 83 ec 10          	sub    $0x10,%rsp
  404f30:	48 89 7d f8          	mov    %rdi,-0x8(%rbp)
  404f34:	48 8b 45 f8          	mov    -0x8(%rbp),%rax
  404f38:	48 89 c7             	mov    %rax,%rdi
  404f3b:	e8 38 01 00 00       	callq  405078 <_ZNKSt12_Vector_baseINSt7__cxx1112basic_stringIcSt11char_traitsIcESaIcEEESaIS5_EE19_M_get_Tp_allocatorEv>
  404f40:	48 89 c7             	mov    %rax,%rdi
  404f43:	e8 15 01 00 00       	callq  40505d <_ZNSt16allocator_traitsISaINSt7__cxx1112basic_stringIcSt11char_traitsIcESaIcEEEEE8max_sizeERKS6_>
  404f48:	c9                   	leaveq 
  404f49:	c3                   	retq   

0000000000404f4a <_ZSt3maxImERKT_S2_S2_>:
  404f4a:	55                   	push   %rbp
  404f4b:	48 89 e5             	mov    %rsp,%rbp
  404f4e:	48 89 7d f8          	mov    %rdi,-0x8(%rbp)
  404f52:	48 89 75 f0          	mov    %rsi,-0x10(%rbp)
  404f56:	48 8b 45 f8          	mov    -0x8(%rbp),%rax
  404f5a:	48 8b 10             	mov    (%rax),%rdx
  404f5d:	48 8b 45 f0          	mov    -0x10(%rbp),%rax
  404f61:	48 8b 00             	mov    (%rax),%rax
  404f64:	48 39 c2             	cmp    %rax,%rdx
  404f67:	73 06                	jae    404f6f <_ZSt3maxImERKT_S2_S2_+0x25>
  404f69:	48 8b 45 f0          	mov    -0x10(%rbp),%rax
  404f6d:	eb 04                	jmp    404f73 <_ZSt3maxImERKT_S2_S2_+0x29>
  404f6f:	48 8b 45 f8          	mov    -0x8(%rbp),%rax
  404f73:	5d                   	pop    %rbp
  404f74:	c3                   	retq   

0000000000404f75 <_ZNSt16allocator_traitsISaINSt7__cxx1112basic_stringIcSt11char_traitsIcESaIcEEEEE8allocateERS6_m>:
  404f75:	55                   	push   %rbp
  404f76:	48 89 e5             	mov    %rsp,%rbp
  404f79:	48 83 ec 10          	sub    $0x10,%rsp
  404f7d:	48 89 7d f8          	mov    %rdi,-0x8(%rbp)
  404f81:	48 89 75 f0          	mov    %rsi,-0x10(%rbp)
  404f85:	48 8b 4d f0          	mov    -0x10(%rbp),%rcx
  404f89:	48 8b 45 f8          	mov    -0x8(%rbp),%rax
  404f8d:	ba 00 00 00 00       	mov    $0x0,%edx
  404f92:	48 89 ce             	mov    %rcx,%rsi
  404f95:	48 89 c7             	mov    %rax,%rdi
  404f98:	e8 e9 00 00 00       	callq  405086 <_ZN9__gnu_cxx13new_allocatorINSt7__cxx1112basic_stringIcSt11char_traitsIcESaIcEEEE8allocateEmPKv>
  404f9d:	c9                   	leaveq 
  404f9e:	c3                   	retq   

0000000000404f9f <_ZSt32__make_move_if_noexcept_iteratorIPNSt7__cxx1112basic_stringIcSt11char_traitsIcESaIcEEESt13move_iteratorIS6_EET0_T_>:
  404f9f:	55                   	push   %rbp
  404fa0:	48 89 e5             	mov    %rsp,%rbp
  404fa3:	48 83 ec 20          	sub    $0x20,%rsp
  404fa7:	48 89 7d e8          	mov    %rdi,-0x18(%rbp)
  404fab:	64 48 8b 04 25 28 00 	mov    %fs:0x28,%rax
  404fb2:	00 00 
  404fb4:	48 89 45 f8          	mov    %rax,-0x8(%rbp)
  404fb8:	31 c0                	xor    %eax,%eax
  404fba:	48 8b 55 e8          	mov    -0x18(%rbp),%rdx
  404fbe:	48 8d 45 f0          	lea    -0x10(%rbp),%rax
  404fc2:	48 89 d6             	mov    %rdx,%rsi
  404fc5:	48 89 c7             	mov    %rax,%rdi
  404fc8:	e8 fb 00 00 00       	callq  4050c8 <_ZNSt13move_iteratorIPNSt7__cxx1112basic_stringIcSt11char_traitsIcESaIcEEEEC1ES6_>
  404fcd:	48 8b 45 f0          	mov    -0x10(%rbp),%rax
  404fd1:	48 8b 4d f8          	mov    -0x8(%rbp),%rcx
  404fd5:	64 48 33 0c 25 28 00 	xor    %fs:0x28,%rcx
  404fdc:	00 00 
  404fde:	74 05                	je     404fe5 <_ZSt32__make_move_if_noexcept_iteratorIPNSt7__cxx1112basic_stringIcSt11char_traitsIcESaIcEEESt13move_iteratorIS6_EET0_T_+0x46>
  404fe0:	e8 3b c5 ff ff       	callq  401520 <__stack_chk_fail@plt>
  404fe5:	c9                   	leaveq 
  404fe6:	c3                   	retq   

0000000000404fe7 <_ZSt22__uninitialized_copy_aISt13move_iteratorIPNSt7__cxx1112basic_stringIcSt11char_traitsIcESaIcEEEES7_S6_ET0_T_SA_S9_RSaIT1_E>:
  404fe7:	55                   	push   %rbp
  404fe8:	48 89 e5             	mov    %rsp,%rbp
  404feb:	48 83 ec 20          	sub    $0x20,%rsp
  404fef:	48 89 7d f0          	mov    %rdi,-0x10(%rbp)
  404ff3:	48 89 75 e0          	mov    %rsi,-0x20(%rbp)
  404ff7:	48 89 55 e8          	mov    %rdx,-0x18(%rbp)
  404ffb:	48 89 4d f8          	mov    %rcx,-0x8(%rbp)
  404fff:	48 8b 55 e8          	mov    -0x18(%rbp),%rdx
  405003:	48 8b 4d e0          	mov    -0x20(%rbp),%rcx
  405007:	48 8b 45 f0          	mov    -0x10(%rbp),%rax
  40500b:	48 89 ce             	mov    %rcx,%rsi
  40500e:	48 89 c7             	mov    %rax,%rdi
  405011:	e8 cc 00 00 00       	callq  4050e2 <_ZSt18uninitialized_copyISt13move_iteratorIPNSt7__cxx1112basic_stringIcSt11char_traitsIcESaIcEEEES7_ET0_T_SA_S9_>
  405016:	c9                   	leaveq 
  405017:	c3                   	retq   

0000000000405018 <_ZN9__gnu_cxx13new_allocatorINSt7__cxx1112basic_stringIcSt11char_traitsIcESaIcEEEE7destroyIS6_EEvPT_>:
  405018:	55                   	push   %rbp
  405019:	48 89 e5             	mov    %rsp,%rbp
  40501c:	48 83 ec 10          	sub    $0x10,%rsp
  405020:	48 89 7d f8          	mov    %rdi,-0x8(%rbp)
  405024:	48 89 75 f0          	mov    %rsi,-0x10(%rbp)
  405028:	48 8b 45 f0          	mov    -0x10(%rbp),%rax
  40502c:	48 89 c7             	mov    %rax,%rdi
  40502f:	e8 9c c4 ff ff       	callq  4014d0 <_ZNSt7__cxx1112basic_stringIcSt11char_traitsIcESaIcEED1Ev@plt>
  405034:	90                   	nop
  405035:	c9                   	leaveq 
  405036:	c3                   	retq   

0000000000405037 <_ZSt8_DestroyIPNSt7__cxx1112basic_stringIcSt11char_traitsIcESaIcEEEEvT_S7_>:
  405037:	55                   	push   %rbp
  405038:	48 89 e5             	mov    %rsp,%rbp
  40503b:	48 83 ec 10          	sub    $0x10,%rsp
  40503f:	48 89 7d f8          	mov    %rdi,-0x8(%rbp)
  405043:	48 89 75 f0          	mov    %rsi,-0x10(%rbp)
  405047:	48 8b 55 f0          	mov    -0x10(%rbp),%rdx
  40504b:	48 8b 45 f8          	mov    -0x8(%rbp),%rax
  40504f:	48 89 d6             	mov    %rdx,%rsi
  405052:	48 89 c7             	mov    %rax,%rdi
  405055:	e8 b9 00 00 00       	callq  405113 <_ZNSt12_Destroy_auxILb0EE9__destroyIPNSt7__cxx1112basic_stringIcSt11char_traitsIcESaIcEEEEEvT_S9_>
  40505a:	90                   	nop
  40505b:	c9                   	leaveq 
  40505c:	c3                   	retq   

000000000040505d <_ZNSt16allocator_traitsISaINSt7__cxx1112basic_stringIcSt11char_traitsIcESaIcEEEEE8max_sizeERKS6_>:
  40505d:	55                   	push   %rbp
  40505e:	48 89 e5             	mov    %rsp,%rbp
  405061:	48 83 ec 10          	sub    $0x10,%rsp
  405065:	48 89 7d f8          	mov    %rdi,-0x8(%rbp)
  405069:	48 8b 45 f8          	mov    -0x8(%rbp),%rax
  40506d:	48 89 c7             	mov    %rax,%rdi
  405070:	e8 d7 00 00 00       	callq  40514c <_ZNK9__gnu_cxx13new_allocatorINSt7__cxx1112basic_stringIcSt11char_traitsIcESaIcEEEE8max_sizeEv>
  405075:	c9                   	leaveq 
  405076:	c3                   	retq   
  405077:	90                   	nop

0000000000405078 <_ZNKSt12_Vector_baseINSt7__cxx1112basic_stringIcSt11char_traitsIcESaIcEEESaIS5_EE19_M_get_Tp_allocatorEv>:
  405078:	55                   	push   %rbp
  405079:	48 89 e5             	mov    %rsp,%rbp
  40507c:	48 89 7d f8          	mov    %rdi,-0x8(%rbp)
  405080:	48 8b 45 f8          	mov    -0x8(%rbp),%rax
  405084:	5d                   	pop    %rbp
  405085:	c3                   	retq   

0000000000405086 <_ZN9__gnu_cxx13new_allocatorINSt7__cxx1112basic_stringIcSt11char_traitsIcESaIcEEEE8allocateEmPKv>:
  405086:	55                   	push   %rbp
  405087:	48 89 e5             	mov    %rsp,%rbp
  40508a:	48 83 ec 20          	sub    $0x20,%rsp
  40508e:	48 89 7d f8          	mov    %rdi,-0x8(%rbp)
  405092:	48 89 75 f0          	mov    %rsi,-0x10(%rbp)
  405096:	48 89 55 e8          	mov    %rdx,-0x18(%rbp)
  40509a:	48 8b 45 f8          	mov    -0x8(%rbp),%rax
  40509e:	48 89 c7             	mov    %rax,%rdi
  4050a1:	e8 a6 00 00 00       	callq  40514c <_ZNK9__gnu_cxx13new_allocatorINSt7__cxx1112basic_stringIcSt11char_traitsIcESaIcEEEE8max_sizeEv>
  4050a6:	48 3b 45 f0          	cmp    -0x10(%rbp),%rax
  4050aa:	0f 92 c0             	setb   %al
  4050ad:	84 c0                	test   %al,%al
  4050af:	74 05                	je     4050b6 <_ZN9__gnu_cxx13new_allocatorINSt7__cxx1112basic_stringIcSt11char_traitsIcESaIcEEEE8allocateEmPKv+0x30>
  4050b1:	e8 ea c4 ff ff       	callq  4015a0 <_ZSt17__throw_bad_allocv@plt>
  4050b6:	48 8b 45 f0          	mov    -0x10(%rbp),%rax
  4050ba:	48 c1 e0 05          	shl    $0x5,%rax
  4050be:	48 89 c7             	mov    %rax,%rdi
  4050c1:	e8 9a c5 ff ff       	callq  401660 <_Znwm@plt>
  4050c6:	c9                   	leaveq 
  4050c7:	c3                   	retq   

00000000004050c8 <_ZNSt13move_iteratorIPNSt7__cxx1112basic_stringIcSt11char_traitsIcESaIcEEEEC1ES6_>:
  4050c8:	55                   	push   %rbp
  4050c9:	48 89 e5             	mov    %rsp,%rbp
  4050cc:	48 89 7d f8          	mov    %rdi,-0x8(%rbp)
  4050d0:	48 89 75 f0          	mov    %rsi,-0x10(%rbp)
  4050d4:	48 8b 45 f8          	mov    -0x8(%rbp),%rax
  4050d8:	48 8b 55 f0          	mov    -0x10(%rbp),%rdx
  4050dc:	48 89 10             	mov    %rdx,(%rax)
  4050df:	90                   	nop
  4050e0:	5d                   	pop    %rbp
  4050e1:	c3                   	retq   

00000000004050e2 <_ZSt18uninitialized_copyISt13move_iteratorIPNSt7__cxx1112basic_stringIcSt11char_traitsIcESaIcEEEES7_ET0_T_SA_S9_>:
  4050e2:	55                   	push   %rbp
  4050e3:	48 89 e5             	mov    %rsp,%rbp
  4050e6:	48 83 ec 30          	sub    $0x30,%rsp
  4050ea:	48 89 7d e0          	mov    %rdi,-0x20(%rbp)
  4050ee:	48 89 75 d0          	mov    %rsi,-0x30(%rbp)
  4050f2:	48 89 55 d8          	mov    %rdx,-0x28(%rbp)
  4050f6:	c6 45 ff 01          	movb   $0x1,-0x1(%rbp)
  4050fa:	48 8b 55 d8          	mov    -0x28(%rbp),%rdx
  4050fe:	48 8b 4d d0          	mov    -0x30(%rbp),%rcx
  405102:	48 8b 45 e0          	mov    -0x20(%rbp),%rax
  405106:	48 89 ce             	mov    %rcx,%rsi
  405109:	48 89 c7             	mov    %rax,%rdi
  40510c:	e8 4f 00 00 00       	callq  405160 <_ZNSt20__uninitialized_copyILb0EE13__uninit_copyISt13move_iteratorIPNSt7__cxx1112basic_stringIcSt11char_traitsIcESaIcEEEES9_EET0_T_SC_SB_>
  405111:	c9                   	leaveq 
  405112:	c3                   	retq   

0000000000405113 <_ZNSt12_Destroy_auxILb0EE9__destroyIPNSt7__cxx1112basic_stringIcSt11char_traitsIcESaIcEEEEEvT_S9_>:
  405113:	55                   	push   %rbp
  405114:	48 89 e5             	mov    %rsp,%rbp
  405117:	48 83 ec 10          	sub    $0x10,%rsp
  40511b:	48 89 7d f8          	mov    %rdi,-0x8(%rbp)
  40511f:	48 89 75 f0          	mov    %rsi,-0x10(%rbp)
  405123:	48 8b 45 f8          	mov    -0x8(%rbp),%rax
  405127:	48 3b 45 f0          	cmp    -0x10(%rbp),%rax
  40512b:	74 1b                	je     405148 <_ZNSt12_Destroy_auxILb0EE9__destroyIPNSt7__cxx1112basic_stringIcSt11char_traitsIcESaIcEEEEEvT_S9_+0x35>
  40512d:	48 8b 45 f8          	mov    -0x8(%rbp),%rax
  405131:	48 89 c7             	mov    %rax,%rdi
  405134:	e8 d4 00 00 00       	callq  40520d <_ZSt11__addressofINSt7__cxx1112basic_stringIcSt11char_traitsIcESaIcEEEEPT_RS6_>
  405139:	48 89 c7             	mov    %rax,%rdi
  40513c:	e8 da 00 00 00       	callq  40521b <_ZSt8_DestroyINSt7__cxx1112basic_stringIcSt11char_traitsIcESaIcEEEEvPT_>
  405141:	48 83 45 f8 20       	addq   $0x20,-0x8(%rbp)
  405146:	eb db                	jmp    405123 <_ZNSt12_Destroy_auxILb0EE9__destroyIPNSt7__cxx1112basic_stringIcSt11char_traitsIcESaIcEEEEEvT_S9_+0x10>
  405148:	90                   	nop
  405149:	c9                   	leaveq 
  40514a:	c3                   	retq   
  40514b:	90                   	nop

000000000040514c <_ZNK9__gnu_cxx13new_allocatorINSt7__cxx1112basic_stringIcSt11char_traitsIcESaIcEEEE8max_sizeEv>:
  40514c:	55                   	push   %rbp
  40514d:	48 89 e5             	mov    %rsp,%rbp
  405150:	48 89 7d f8          	mov    %rdi,-0x8(%rbp)
  405154:	48 b8 ff ff ff ff ff 	movabs $0x7ffffffffffffff,%rax
  40515b:	ff ff 07 
  40515e:	5d                   	pop    %rbp
  40515f:	c3                   	retq   

0000000000405160 <_ZNSt20__uninitialized_copyILb0EE13__uninit_copyISt13move_iteratorIPNSt7__cxx1112basic_stringIcSt11char_traitsIcESaIcEEEES9_EET0_T_SC_SB_>:
  405160:	55                   	push   %rbp
  405161:	48 89 e5             	mov    %rsp,%rbp
  405164:	53                   	push   %rbx
  405165:	48 83 ec 38          	sub    $0x38,%rsp
  405169:	48 89 7d d0          	mov    %rdi,-0x30(%rbp)
  40516d:	48 89 75 c0          	mov    %rsi,-0x40(%rbp)
  405171:	48 89 55 c8          	mov    %rdx,-0x38(%rbp)
  405175:	48 8b 45 c8          	mov    -0x38(%rbp),%rax
  405179:	48 89 45 e8          	mov    %rax,-0x18(%rbp)
  40517d:	48 8d 55 c0          	lea    -0x40(%rbp),%rdx
  405181:	48 8d 45 d0          	lea    -0x30(%rbp),%rax
  405185:	48 89 d6             	mov    %rdx,%rsi
  405188:	48 89 c7             	mov    %rax,%rdi
  40518b:	e8 a6 00 00 00       	callq  405236 <_ZStneIPNSt7__cxx1112basic_stringIcSt11char_traitsIcESaIcEEEEbRKSt13move_iteratorIT_ESB_>
  405190:	84 c0                	test   %al,%al
  405192:	74 39                	je     4051cd <_ZNSt20__uninitialized_copyILb0EE13__uninit_copyISt13move_iteratorIPNSt7__cxx1112basic_stringIcSt11char_traitsIcESaIcEEEES9_EET0_T_SC_SB_+0x6d>
  405194:	48 8d 45 d0          	lea    -0x30(%rbp),%rax
  405198:	48 89 c7             	mov    %rax,%rdi
  40519b:	e8 de 00 00 00       	callq  40527e <_ZNKSt13move_iteratorIPNSt7__cxx1112basic_stringIcSt11char_traitsIcESaIcEEEEdeEv>
  4051a0:	48 89 c3             	mov    %rax,%rbx
  4051a3:	48 8b 45 e8          	mov    -0x18(%rbp),%rax
  4051a7:	48 89 c7             	mov    %rax,%rdi
  4051aa:	e8 5e 00 00 00       	callq  40520d <_ZSt11__addressofINSt7__cxx1112basic_stringIcSt11char_traitsIcESaIcEEEEPT_RS6_>
  4051af:	48 89 de             	mov    %rbx,%rsi
  4051b2:	48 89 c7             	mov    %rax,%rdi
  4051b5:	e8 d5 00 00 00       	callq  40528f <_ZSt10_ConstructINSt7__cxx1112basic_stringIcSt11char_traitsIcESaIcEEEIS5_EEvPT_DpOT0_>
  4051ba:	48 8d 45 d0          	lea    -0x30(%rbp),%rax
  4051be:	48 89 c7             	mov    %rax,%rdi
  4051c1:	e8 98 00 00 00       	callq  40525e <_ZNSt13move_iteratorIPNSt7__cxx1112basic_stringIcSt11char_traitsIcESaIcEEEEppEv>
  4051c6:	48 83 45 e8 20       	addq   $0x20,-0x18(%rbp)
  4051cb:	eb b0                	jmp    40517d <_ZNSt20__uninitialized_copyILb0EE13__uninit_copyISt13move_iteratorIPNSt7__cxx1112basic_stringIcSt11char_traitsIcESaIcEEEES9_EET0_T_SC_SB_+0x1d>
  4051cd:	48 8b 45 e8          	mov    -0x18(%rbp),%rax
  4051d1:	eb 33                	jmp    405206 <_ZNSt20__uninitialized_copyILb0EE13__uninit_copyISt13move_iteratorIPNSt7__cxx1112basic_stringIcSt11char_traitsIcESaIcEEEES9_EET0_T_SC_SB_+0xa6>
  4051d3:	48 89 c7             	mov    %rax,%rdi
  4051d6:	e8 05 c4 ff ff       	callq  4015e0 <__cxa_begin_catch@plt>
  4051db:	48 8b 55 e8          	mov    -0x18(%rbp),%rdx
  4051df:	48 8b 45 c8          	mov    -0x38(%rbp),%rax
  4051e3:	48 89 d6             	mov    %rdx,%rsi
  4051e6:	48 89 c7             	mov    %rax,%rdi
  4051e9:	e8 49 fe ff ff       	callq  405037 <_ZSt8_DestroyIPNSt7__cxx1112basic_stringIcSt11char_traitsIcESaIcEEEEvT_S7_>
  4051ee:	e8 3d c2 ff ff       	callq  401430 <__cxa_rethrow@plt>
  4051f3:	48 89 c3             	mov    %rax,%rbx
  4051f6:	e8 95 c3 ff ff       	callq  401590 <__cxa_end_catch@plt>
  4051fb:	48 89 d8             	mov    %rbx,%rax
  4051fe:	48 89 c7             	mov    %rax,%rdi
  405201:	e8 6a c4 ff ff       	callq  401670 <_Unwind_Resume@plt>
  405206:	48 83 c4 38          	add    $0x38,%rsp
  40520a:	5b                   	pop    %rbx
  40520b:	5d                   	pop    %rbp
  40520c:	c3                   	retq   

000000000040520d <_ZSt11__addressofINSt7__cxx1112basic_stringIcSt11char_traitsIcESaIcEEEEPT_RS6_>:
  40520d:	55                   	push   %rbp
  40520e:	48 89 e5             	mov    %rsp,%rbp
  405211:	48 89 7d f8          	mov    %rdi,-0x8(%rbp)
  405215:	48 8b 45 f8          	mov    -0x8(%rbp),%rax
  405219:	5d                   	pop    %rbp
  40521a:	c3                   	retq   

000000000040521b <_ZSt8_DestroyINSt7__cxx1112basic_stringIcSt11char_traitsIcESaIcEEEEvPT_>:
  40521b:	55                   	push   %rbp
  40521c:	48 89 e5             	mov    %rsp,%rbp
  40521f:	48 83 ec 10          	sub    $0x10,%rsp
  405223:	48 89 7d f8          	mov    %rdi,-0x8(%rbp)
  405227:	48 8b 45 f8          	mov    -0x8(%rbp),%rax
  40522b:	48 89 c7             	mov    %rax,%rdi
  40522e:	e8 9d c2 ff ff       	callq  4014d0 <_ZNSt7__cxx1112basic_stringIcSt11char_traitsIcESaIcEED1Ev@plt>
  405233:	90                   	nop
  405234:	c9                   	leaveq 
  405235:	c3                   	retq   

0000000000405236 <_ZStneIPNSt7__cxx1112basic_stringIcSt11char_traitsIcESaIcEEEEbRKSt13move_iteratorIT_ESB_>:
  405236:	55                   	push   %rbp
  405237:	48 89 e5             	mov    %rsp,%rbp
  40523a:	48 83 ec 10          	sub    $0x10,%rsp
  40523e:	48 89 7d f8          	mov    %rdi,-0x8(%rbp)
  405242:	48 89 75 f0          	mov    %rsi,-0x10(%rbp)
  405246:	48 8b 55 f0          	mov    -0x10(%rbp),%rdx
  40524a:	48 8b 45 f8          	mov    -0x8(%rbp),%rax
  40524e:	48 89 d6             	mov    %rdx,%rsi
  405251:	48 89 c7             	mov    %rax,%rdi
  405254:	e8 7f 00 00 00       	callq  4052d8 <_ZSteqIPNSt7__cxx1112basic_stringIcSt11char_traitsIcESaIcEEEEbRKSt13move_iteratorIT_ESB_>
  405259:	83 f0 01             	xor    $0x1,%eax
  40525c:	c9                   	leaveq 
  40525d:	c3                   	retq   

000000000040525e <_ZNSt13move_iteratorIPNSt7__cxx1112basic_stringIcSt11char_traitsIcESaIcEEEEppEv>:
  40525e:	55                   	push   %rbp
  40525f:	48 89 e5             	mov    %rsp,%rbp
  405262:	48 89 7d f8          	mov    %rdi,-0x8(%rbp)
  405266:	48 8b 45 f8          	mov    -0x8(%rbp),%rax
  40526a:	48 8b 00             	mov    (%rax),%rax
  40526d:	48 8d 50 20          	lea    0x20(%rax),%rdx
  405271:	48 8b 45 f8          	mov    -0x8(%rbp),%rax
  405275:	48 89 10             	mov    %rdx,(%rax)
  405278:	48 8b 45 f8          	mov    -0x8(%rbp),%rax
  40527c:	5d                   	pop    %rbp
  40527d:	c3                   	retq   

000000000040527e <_ZNKSt13move_iteratorIPNSt7__cxx1112basic_stringIcSt11char_traitsIcESaIcEEEEdeEv>:
  40527e:	55                   	push   %rbp
  40527f:	48 89 e5             	mov    %rsp,%rbp
  405282:	48 89 7d f8          	mov    %rdi,-0x8(%rbp)
  405286:	48 8b 45 f8          	mov    -0x8(%rbp),%rax
  40528a:	48 8b 00             	mov    (%rax),%rax
  40528d:	5d                   	pop    %rbp
  40528e:	c3                   	retq   

000000000040528f <_ZSt10_ConstructINSt7__cxx1112basic_stringIcSt11char_traitsIcESaIcEEEIS5_EEvPT_DpOT0_>:
  40528f:	55                   	push   %rbp
  405290:	48 89 e5             	mov    %rsp,%rbp
  405293:	53                   	push   %rbx
  405294:	48 83 ec 18          	sub    $0x18,%rsp
  405298:	48 89 7d e8          	mov    %rdi,-0x18(%rbp)
  40529c:	48 89 75 e0          	mov    %rsi,-0x20(%rbp)
  4052a0:	48 8b 45 e0          	mov    -0x20(%rbp),%rax
  4052a4:	48 89 c7             	mov    %rax,%rdi
  4052a7:	e8 96 f6 ff ff       	callq  404942 <_ZSt7forwardINSt7__cxx1112basic_stringIcSt11char_traitsIcESaIcEEEEOT_RNSt16remove_referenceIS6_E4typeE>
  4052ac:	48 89 c3             	mov    %rax,%rbx
  4052af:	48 8b 45 e8          	mov    -0x18(%rbp),%rax
  4052b3:	48 89 c6             	mov    %rax,%rsi
  4052b6:	bf 20 00 00 00       	mov    $0x20,%edi
  4052bb:	e8 ad f3 ff ff       	callq  40466d <_ZnwmPv>
  4052c0:	48 85 c0             	test   %rax,%rax
  4052c3:	74 0b                	je     4052d0 <_ZSt10_ConstructINSt7__cxx1112basic_stringIcSt11char_traitsIcESaIcEEEIS5_EEvPT_DpOT0_+0x41>
  4052c5:	48 89 de             	mov    %rbx,%rsi
  4052c8:	48 89 c7             	mov    %rax,%rdi
  4052cb:	e8 f0 c1 ff ff       	callq  4014c0 <_ZNSt7__cxx1112basic_stringIcSt11char_traitsIcESaIcEEC1EOS4_@plt>
  4052d0:	90                   	nop
  4052d1:	48 83 c4 18          	add    $0x18,%rsp
  4052d5:	5b                   	pop    %rbx
  4052d6:	5d                   	pop    %rbp
  4052d7:	c3                   	retq   

00000000004052d8 <_ZSteqIPNSt7__cxx1112basic_stringIcSt11char_traitsIcESaIcEEEEbRKSt13move_iteratorIT_ESB_>:
  4052d8:	55                   	push   %rbp
  4052d9:	48 89 e5             	mov    %rsp,%rbp
  4052dc:	53                   	push   %rbx
  4052dd:	48 83 ec 18          	sub    $0x18,%rsp
  4052e1:	48 89 7d e8          	mov    %rdi,-0x18(%rbp)
  4052e5:	48 89 75 e0          	mov    %rsi,-0x20(%rbp)
  4052e9:	48 8b 45 e8          	mov    -0x18(%rbp),%rax
  4052ed:	48 89 c7             	mov    %rax,%rdi
  4052f0:	e8 1d 00 00 00       	callq  405312 <_ZNKSt13move_iteratorIPNSt7__cxx1112basic_stringIcSt11char_traitsIcESaIcEEEE4baseEv>
  4052f5:	48 89 c3             	mov    %rax,%rbx
  4052f8:	48 8b 45 e0          	mov    -0x20(%rbp),%rax
  4052fc:	48 89 c7             	mov    %rax,%rdi
  4052ff:	e8 0e 00 00 00       	callq  405312 <_ZNKSt13move_iteratorIPNSt7__cxx1112basic_stringIcSt11char_traitsIcESaIcEEEE4baseEv>
  405304:	48 39 c3             	cmp    %rax,%rbx
  405307:	0f 94 c0             	sete   %al
  40530a:	48 83 c4 18          	add    $0x18,%rsp
  40530e:	5b                   	pop    %rbx
  40530f:	5d                   	pop    %rbp
  405310:	c3                   	retq   
  405311:	90                   	nop

0000000000405312 <_ZNKSt13move_iteratorIPNSt7__cxx1112basic_stringIcSt11char_traitsIcESaIcEEEE4baseEv>:
  405312:	55                   	push   %rbp
  405313:	48 89 e5             	mov    %rsp,%rbp
  405316:	48 89 7d f8          	mov    %rdi,-0x8(%rbp)
  40531a:	48 8b 45 f8          	mov    -0x8(%rbp),%rax
  40531e:	48 8b 00             	mov    (%rax),%rax
  405321:	5d                   	pop    %rbp
  405322:	c3                   	retq   
  405323:	90                   	nop

0000000000405324 <_ZNSt6vectorINSt7__cxx1112basic_stringIcSt11char_traitsIcESaIcEEESaIS5_EED1Ev>:
  405324:	55                   	push   %rbp
  405325:	48 89 e5             	mov    %rsp,%rbp
  405328:	48 83 ec 10          	sub    $0x10,%rsp
  40532c:	48 89 7d f8          	mov    %rdi,-0x8(%rbp)
  405330:	48 8b 45 f8          	mov    -0x8(%rbp),%rax
  405334:	48 89 c7             	mov    %rax,%rdi
  405337:	e8 0a fb ff ff       	callq  404e46 <_ZNSt12_Vector_baseINSt7__cxx1112basic_stringIcSt11char_traitsIcESaIcEEESaIS5_EE19_M_get_Tp_allocatorEv>
  40533c:	48 89 c2             	mov    %rax,%rdx
  40533f:	48 8b 45 f8          	mov    -0x8(%rbp),%rax
  405343:	48 8b 48 08          	mov    0x8(%rax),%rcx
  405347:	48 8b 45 f8          	mov    -0x8(%rbp),%rax
  40534b:	48 8b 00             	mov    (%rax),%rax
  40534e:	48 89 ce             	mov    %rcx,%rsi
  405351:	48 89 c7             	mov    %rax,%rdi
  405354:	e8 75 fb ff ff       	callq  404ece <_ZSt8_DestroyIPNSt7__cxx1112basic_stringIcSt11char_traitsIcESaIcEEES5_EvT_S7_RSaIT0_E>
  405359:	48 8b 45 f8          	mov    -0x8(%rbp),%rax
  40535d:	48 89 c7             	mov    %rax,%rdi
  405360:	e8 8d f5 ff ff       	callq  4048f2 <_ZNSt12_Vector_baseINSt7__cxx1112basic_stringIcSt11char_traitsIcESaIcEEESaIS5_EED1Ev>
  405365:	90                   	nop
  405366:	c9                   	leaveq 
  405367:	c3                   	retq   
  405368:	0f 1f 84 00 00 00 00 	nopl   0x0(%rax,%rax,1)
  40536f:	00 

0000000000405370 <__libc_csu_init>:
  405370:	41 57                	push   %r15
  405372:	41 56                	push   %r14
  405374:	41 89 ff             	mov    %edi,%r15d
  405377:	41 55                	push   %r13
  405379:	41 54                	push   %r12
  40537b:	4c 8d 25 66 1a 20 00 	lea    0x201a66(%rip),%r12        # 606de8 <__frame_dummy_init_array_entry>
  405382:	55                   	push   %rbp
  405383:	48 8d 2d 6e 1a 20 00 	lea    0x201a6e(%rip),%rbp        # 606df8 <__init_array_end>
  40538a:	53                   	push   %rbx
  40538b:	49 89 f6             	mov    %rsi,%r14
  40538e:	49 89 d5             	mov    %rdx,%r13
  405391:	4c 29 e5             	sub    %r12,%rbp
  405394:	48 83 ec 08          	sub    $0x8,%rsp
  405398:	48 c1 fd 03          	sar    $0x3,%rbp
  40539c:	e8 ff bf ff ff       	callq  4013a0 <_init>
  4053a1:	48 85 ed             	test   %rbp,%rbp
  4053a4:	74 20                	je     4053c6 <__libc_csu_init+0x56>
  4053a6:	31 db                	xor    %ebx,%ebx
  4053a8:	0f 1f 84 00 00 00 00 	nopl   0x0(%rax,%rax,1)
  4053af:	00 
  4053b0:	4c 89 ea             	mov    %r13,%rdx
  4053b3:	4c 89 f6             	mov    %r14,%rsi
  4053b6:	44 89 ff             	mov    %r15d,%edi
  4053b9:	41 ff 14 dc          	callq  *(%r12,%rbx,8)
  4053bd:	48 83 c3 01          	add    $0x1,%rbx
  4053c1:	48 39 eb             	cmp    %rbp,%rbx
  4053c4:	75 ea                	jne    4053b0 <__libc_csu_init+0x40>
  4053c6:	48 83 c4 08          	add    $0x8,%rsp
  4053ca:	5b                   	pop    %rbx
  4053cb:	5d                   	pop    %rbp
  4053cc:	41 5c                	pop    %r12
  4053ce:	41 5d                	pop    %r13
  4053d0:	41 5e                	pop    %r14
  4053d2:	41 5f                	pop    %r15
  4053d4:	c3                   	retq   
  4053d5:	90                   	nop
  4053d6:	66 2e 0f 1f 84 00 00 	nopw   %cs:0x0(%rax,%rax,1)
  4053dd:	00 00 00 

00000000004053e0 <__libc_csu_fini>:
  4053e0:	f3 c3                	repz retq 

Disassembly of section .fini:

00000000004053e4 <_fini>:
  4053e4:	48 83 ec 08          	sub    $0x8,%rsp
  4053e8:	48 83 c4 08          	add    $0x8,%rsp
  4053ec:	c3                   	retq   
